Archive member included because of file (symbol)

/OPT/altera/12.1/tools/nios2eds/bin/gnu/H-i686-pc-linux-gnu/bin/../lib/gcc/nios2-elf/4.1.2/mno-hw-mul/libgcc.a(lib2-divmod.o)
                              obj/default/hello_ucosii.o (__modsi3)
/OPT/altera/12.1/tools/nios2eds/bin/gnu/H-i686-pc-linux-gnu/bin/../lib/gcc/nios2-elf/4.1.2/mno-hw-mul/libgcc.a(lib2-mul.o)
                              obj/default/hello_ucosii.o (__mulsi3)
/OPT/altera/12.1/tools/nios2eds/bin/gnu/H-i686-pc-linux-gnu/bin/../lib/gcc/nios2-elf/4.1.2/../../../../nios2-elf/lib/mno-hw-mul/libc.a(lib_a-puts.o)
                              obj/default/hello_ucosii.o (puts)
/OPT/altera/12.1/tools/nios2eds/bin/gnu/H-i686-pc-linux-gnu/bin/../lib/gcc/nios2-elf/4.1.2/../../../../nios2-elf/lib/mno-hw-mul/libc.a(lib_a-strlen.o)
                              /OPT/altera/12.1/tools/nios2eds/bin/gnu/H-i686-pc-linux-gnu/bin/../lib/gcc/nios2-elf/4.1.2/../../../../nios2-elf/lib/mno-hw-mul/libc.a(lib_a-puts.o) (strlen)
/OPT/altera/12.1/tools/nios2eds/bin/gnu/H-i686-pc-linux-gnu/bin/../lib/gcc/nios2-elf/4.1.2/../../../../nios2-elf/lib/mno-hw-mul/libc.a(lib_a-fvwrite.o)
                              /OPT/altera/12.1/tools/nios2eds/bin/gnu/H-i686-pc-linux-gnu/bin/../lib/gcc/nios2-elf/4.1.2/../../../../nios2-elf/lib/mno-hw-mul/libc.a(lib_a-puts.o) (__sfvwrite_r)
/OPT/altera/12.1/tools/nios2eds/bin/gnu/H-i686-pc-linux-gnu/bin/../lib/gcc/nios2-elf/4.1.2/../../../../nios2-elf/lib/mno-hw-mul/libc.a(lib_a-impure.o)
                              /OPT/altera/12.1/tools/nios2eds/bin/gnu/H-i686-pc-linux-gnu/bin/../lib/gcc/nios2-elf/4.1.2/../../../../nios2-elf/lib/mno-hw-mul/libc.a(lib_a-puts.o) (_impure_ptr)
/OPT/altera/12.1/tools/nios2eds/bin/gnu/H-i686-pc-linux-gnu/bin/../lib/gcc/nios2-elf/4.1.2/../../../../nios2-elf/lib/mno-hw-mul/libc.a(lib_a-mallocr.o)
                              /OPT/altera/12.1/tools/nios2eds/bin/gnu/H-i686-pc-linux-gnu/bin/../lib/gcc/nios2-elf/4.1.2/../../../../nios2-elf/lib/mno-hw-mul/libc.a(lib_a-fvwrite.o) (_malloc_r)
/OPT/altera/12.1/tools/nios2eds/bin/gnu/H-i686-pc-linux-gnu/bin/../lib/gcc/nios2-elf/4.1.2/../../../../nios2-elf/lib/mno-hw-mul/libc.a(lib_a-memchr.o)
                              /OPT/altera/12.1/tools/nios2eds/bin/gnu/H-i686-pc-linux-gnu/bin/../lib/gcc/nios2-elf/4.1.2/../../../../nios2-elf/lib/mno-hw-mul/libc.a(lib_a-fvwrite.o) (memchr)
/OPT/altera/12.1/tools/nios2eds/bin/gnu/H-i686-pc-linux-gnu/bin/../lib/gcc/nios2-elf/4.1.2/../../../../nios2-elf/lib/mno-hw-mul/libc.a(lib_a-memcpy.o)
                              /OPT/altera/12.1/tools/nios2eds/bin/gnu/H-i686-pc-linux-gnu/bin/../lib/gcc/nios2-elf/4.1.2/../../../../nios2-elf/lib/mno-hw-mul/libc.a(lib_a-fvwrite.o) (memcpy)
/OPT/altera/12.1/tools/nios2eds/bin/gnu/H-i686-pc-linux-gnu/bin/../lib/gcc/nios2-elf/4.1.2/../../../../nios2-elf/lib/mno-hw-mul/libc.a(lib_a-memmove.o)
                              /OPT/altera/12.1/tools/nios2eds/bin/gnu/H-i686-pc-linux-gnu/bin/../lib/gcc/nios2-elf/4.1.2/../../../../nios2-elf/lib/mno-hw-mul/libc.a(lib_a-fvwrite.o) (memmove)
/OPT/altera/12.1/tools/nios2eds/bin/gnu/H-i686-pc-linux-gnu/bin/../lib/gcc/nios2-elf/4.1.2/../../../../nios2-elf/lib/mno-hw-mul/libc.a(lib_a-reallocr.o)
                              /OPT/altera/12.1/tools/nios2eds/bin/gnu/H-i686-pc-linux-gnu/bin/../lib/gcc/nios2-elf/4.1.2/../../../../nios2-elf/lib/mno-hw-mul/libc.a(lib_a-fvwrite.o) (_realloc_r)
/OPT/altera/12.1/tools/nios2eds/bin/gnu/H-i686-pc-linux-gnu/bin/../lib/gcc/nios2-elf/4.1.2/../../../../nios2-elf/lib/mno-hw-mul/libc.a(lib_a-sbrkr.o)
                              /OPT/altera/12.1/tools/nios2eds/bin/gnu/H-i686-pc-linux-gnu/bin/../lib/gcc/nios2-elf/4.1.2/../../../../nios2-elf/lib/mno-hw-mul/libc.a(lib_a-mallocr.o) (_sbrk_r)
/OPT/altera/12.1/tools/nios2eds/bin/gnu/H-i686-pc-linux-gnu/bin/../lib/gcc/nios2-elf/4.1.2/../../../../nios2-elf/lib/mno-hw-mul/libc.a(lib_a-wsetup.o)
                              /OPT/altera/12.1/tools/nios2eds/bin/gnu/H-i686-pc-linux-gnu/bin/../lib/gcc/nios2-elf/4.1.2/../../../../nios2-elf/lib/mno-hw-mul/libc.a(lib_a-fvwrite.o) (__swsetup_r)
/OPT/altera/12.1/tools/nios2eds/bin/gnu/H-i686-pc-linux-gnu/bin/../lib/gcc/nios2-elf/4.1.2/../../../../nios2-elf/lib/mno-hw-mul/libc.a(lib_a-fflush.o)
                              /OPT/altera/12.1/tools/nios2eds/bin/gnu/H-i686-pc-linux-gnu/bin/../lib/gcc/nios2-elf/4.1.2/../../../../nios2-elf/lib/mno-hw-mul/libc.a(lib_a-fvwrite.o) (_fflush_r)
/OPT/altera/12.1/tools/nios2eds/bin/gnu/H-i686-pc-linux-gnu/bin/../lib/gcc/nios2-elf/4.1.2/../../../../nios2-elf/lib/mno-hw-mul/libc.a(lib_a-findfp.o)
                              /OPT/altera/12.1/tools/nios2eds/bin/gnu/H-i686-pc-linux-gnu/bin/../lib/gcc/nios2-elf/4.1.2/../../../../nios2-elf/lib/mno-hw-mul/libc.a(lib_a-wsetup.o) (__sinit)
/OPT/altera/12.1/tools/nios2eds/bin/gnu/H-i686-pc-linux-gnu/bin/../lib/gcc/nios2-elf/4.1.2/../../../../nios2-elf/lib/mno-hw-mul/libc.a(lib_a-freer.o)
                              /OPT/altera/12.1/tools/nios2eds/bin/gnu/H-i686-pc-linux-gnu/bin/../lib/gcc/nios2-elf/4.1.2/../../../../nios2-elf/lib/mno-hw-mul/libc.a(lib_a-fvwrite.o) (_free_r)
/OPT/altera/12.1/tools/nios2eds/bin/gnu/H-i686-pc-linux-gnu/bin/../lib/gcc/nios2-elf/4.1.2/../../../../nios2-elf/lib/mno-hw-mul/libc.a(lib_a-fwalk.o)
                              /OPT/altera/12.1/tools/nios2eds/bin/gnu/H-i686-pc-linux-gnu/bin/../lib/gcc/nios2-elf/4.1.2/../../../../nios2-elf/lib/mno-hw-mul/libc.a(lib_a-fflush.o) (_fwalk_reent)
/OPT/altera/12.1/tools/nios2eds/bin/gnu/H-i686-pc-linux-gnu/bin/../lib/gcc/nios2-elf/4.1.2/../../../../nios2-elf/lib/mno-hw-mul/libc.a(lib_a-int_errno.o)
                              /OPT/altera/12.1/tools/nios2eds/bin/gnu/H-i686-pc-linux-gnu/bin/../lib/gcc/nios2-elf/4.1.2/../../../../nios2-elf/lib/mno-hw-mul/libc.a(lib_a-sbrkr.o) (errno)
/OPT/altera/12.1/tools/nios2eds/bin/gnu/H-i686-pc-linux-gnu/bin/../lib/gcc/nios2-elf/4.1.2/../../../../nios2-elf/lib/mno-hw-mul/libc.a(lib_a-makebuf.o)
                              /OPT/altera/12.1/tools/nios2eds/bin/gnu/H-i686-pc-linux-gnu/bin/../lib/gcc/nios2-elf/4.1.2/../../../../nios2-elf/lib/mno-hw-mul/libc.a(lib_a-wsetup.o) (__smakebuf_r)
/OPT/altera/12.1/tools/nios2eds/bin/gnu/H-i686-pc-linux-gnu/bin/../lib/gcc/nios2-elf/4.1.2/../../../../nios2-elf/lib/mno-hw-mul/libc.a(lib_a-memset.o)
                              /OPT/altera/12.1/tools/nios2eds/bin/gnu/H-i686-pc-linux-gnu/bin/../lib/gcc/nios2-elf/4.1.2/../../../../nios2-elf/lib/mno-hw-mul/libc.a(lib_a-findfp.o) (memset)
/OPT/altera/12.1/tools/nios2eds/bin/gnu/H-i686-pc-linux-gnu/bin/../lib/gcc/nios2-elf/4.1.2/../../../../nios2-elf/lib/mno-hw-mul/libc.a(lib_a-stdio.o)
                              /OPT/altera/12.1/tools/nios2eds/bin/gnu/H-i686-pc-linux-gnu/bin/../lib/gcc/nios2-elf/4.1.2/../../../../nios2-elf/lib/mno-hw-mul/libc.a(lib_a-findfp.o) (__sclose)
/OPT/altera/12.1/tools/nios2eds/bin/gnu/H-i686-pc-linux-gnu/bin/../lib/gcc/nios2-elf/4.1.2/../../../../nios2-elf/lib/mno-hw-mul/libc.a(lib_a-writer.o)
                              /OPT/altera/12.1/tools/nios2eds/bin/gnu/H-i686-pc-linux-gnu/bin/../lib/gcc/nios2-elf/4.1.2/../../../../nios2-elf/lib/mno-hw-mul/libc.a(lib_a-stdio.o) (_write_r)
/OPT/altera/12.1/tools/nios2eds/bin/gnu/H-i686-pc-linux-gnu/bin/../lib/gcc/nios2-elf/4.1.2/../../../../nios2-elf/lib/mno-hw-mul/libc.a(lib_a-closer.o)
                              /OPT/altera/12.1/tools/nios2eds/bin/gnu/H-i686-pc-linux-gnu/bin/../lib/gcc/nios2-elf/4.1.2/../../../../nios2-elf/lib/mno-hw-mul/libc.a(lib_a-stdio.o) (_close_r)
/OPT/altera/12.1/tools/nios2eds/bin/gnu/H-i686-pc-linux-gnu/bin/../lib/gcc/nios2-elf/4.1.2/../../../../nios2-elf/lib/mno-hw-mul/libc.a(lib_a-fclose.o)
                              /OPT/altera/12.1/tools/nios2eds/bin/gnu/H-i686-pc-linux-gnu/bin/../lib/gcc/nios2-elf/4.1.2/../../../../nios2-elf/lib/mno-hw-mul/libc.a(lib_a-findfp.o) (fclose)
/OPT/altera/12.1/tools/nios2eds/bin/gnu/H-i686-pc-linux-gnu/bin/../lib/gcc/nios2-elf/4.1.2/../../../../nios2-elf/lib/mno-hw-mul/libc.a(lib_a-fstatr.o)
                              /OPT/altera/12.1/tools/nios2eds/bin/gnu/H-i686-pc-linux-gnu/bin/../lib/gcc/nios2-elf/4.1.2/../../../../nios2-elf/lib/mno-hw-mul/libc.a(lib_a-makebuf.o) (_fstat_r)
/OPT/altera/12.1/tools/nios2eds/bin/gnu/H-i686-pc-linux-gnu/bin/../lib/gcc/nios2-elf/4.1.2/../../../../nios2-elf/lib/mno-hw-mul/libc.a(lib_a-isattyr.o)
                              /OPT/altera/12.1/tools/nios2eds/bin/gnu/H-i686-pc-linux-gnu/bin/../lib/gcc/nios2-elf/4.1.2/../../../../nios2-elf/lib/mno-hw-mul/libc.a(lib_a-makebuf.o) (_isatty_r)
/OPT/altera/12.1/tools/nios2eds/bin/gnu/H-i686-pc-linux-gnu/bin/../lib/gcc/nios2-elf/4.1.2/../../../../nios2-elf/lib/mno-hw-mul/libc.a(lib_a-lseekr.o)
                              /OPT/altera/12.1/tools/nios2eds/bin/gnu/H-i686-pc-linux-gnu/bin/../lib/gcc/nios2-elf/4.1.2/../../../../nios2-elf/lib/mno-hw-mul/libc.a(lib_a-stdio.o) (_lseek_r)
/OPT/altera/12.1/tools/nios2eds/bin/gnu/H-i686-pc-linux-gnu/bin/../lib/gcc/nios2-elf/4.1.2/../../../../nios2-elf/lib/mno-hw-mul/libc.a(lib_a-readr.o)
                              /OPT/altera/12.1/tools/nios2eds/bin/gnu/H-i686-pc-linux-gnu/bin/../lib/gcc/nios2-elf/4.1.2/../../../../nios2-elf/lib/mno-hw-mul/libc.a(lib_a-stdio.o) (_read_r)
../Evo_Synth_bsp//libucosii_bsp.a(alt_close.o)
                              /OPT/altera/12.1/tools/nios2eds/bin/gnu/H-i686-pc-linux-gnu/bin/../lib/gcc/nios2-elf/4.1.2/../../../../nios2-elf/lib/mno-hw-mul/libc.a(lib_a-closer.o) (close)
../Evo_Synth_bsp//libucosii_bsp.a(alt_dev.o)
                              ../Evo_Synth_bsp//libucosii_bsp.a(alt_close.o) (alt_fd_list)
../Evo_Synth_bsp//libucosii_bsp.a(alt_errno.o)
                              ../Evo_Synth_bsp//libucosii_bsp.a(alt_close.o) (alt_errno)
../Evo_Synth_bsp//libucosii_bsp.a(alt_fstat.o)
                              /OPT/altera/12.1/tools/nios2eds/bin/gnu/H-i686-pc-linux-gnu/bin/../lib/gcc/nios2-elf/4.1.2/../../../../nios2-elf/lib/mno-hw-mul/libc.a(lib_a-fstatr.o) (fstat)
../Evo_Synth_bsp//libucosii_bsp.a(alt_isatty.o)
                              /OPT/altera/12.1/tools/nios2eds/bin/gnu/H-i686-pc-linux-gnu/bin/../lib/gcc/nios2-elf/4.1.2/../../../../nios2-elf/lib/mno-hw-mul/libc.a(lib_a-isattyr.o) (isatty)
../Evo_Synth_bsp//libucosii_bsp.a(alt_load.o)
                              ../Evo_Synth_bsp//obj/HAL/src/crt0.o (alt_load)
../Evo_Synth_bsp//libucosii_bsp.a(alt_lseek.o)
                              /OPT/altera/12.1/tools/nios2eds/bin/gnu/H-i686-pc-linux-gnu/bin/../lib/gcc/nios2-elf/4.1.2/../../../../nios2-elf/lib/mno-hw-mul/libc.a(lib_a-lseekr.o) (lseek)
../Evo_Synth_bsp//libucosii_bsp.a(alt_main.o)
                              ../Evo_Synth_bsp//obj/HAL/src/crt0.o (alt_main)
../Evo_Synth_bsp//libucosii_bsp.a(alt_read.o)
                              /OPT/altera/12.1/tools/nios2eds/bin/gnu/H-i686-pc-linux-gnu/bin/../lib/gcc/nios2-elf/4.1.2/../../../../nios2-elf/lib/mno-hw-mul/libc.a(lib_a-readr.o) (read)
../Evo_Synth_bsp//libucosii_bsp.a(alt_release_fd.o)
                              ../Evo_Synth_bsp//libucosii_bsp.a(alt_close.o) (alt_release_fd)
../Evo_Synth_bsp//libucosii_bsp.a(alt_sbrk.o)
                              /OPT/altera/12.1/tools/nios2eds/bin/gnu/H-i686-pc-linux-gnu/bin/../lib/gcc/nios2-elf/4.1.2/../../../../nios2-elf/lib/mno-hw-mul/libc.a(lib_a-sbrkr.o) (sbrk)
../Evo_Synth_bsp//libucosii_bsp.a(alt_write.o)
                              /OPT/altera/12.1/tools/nios2eds/bin/gnu/H-i686-pc-linux-gnu/bin/../lib/gcc/nios2-elf/4.1.2/../../../../nios2-elf/lib/mno-hw-mul/libc.a(lib_a-writer.o) (write)
../Evo_Synth_bsp//libucosii_bsp.a(alt_env_lock.o)
                              ../Evo_Synth_bsp//libucosii_bsp.a(alt_main.o) (alt_envsem)
../Evo_Synth_bsp//libucosii_bsp.a(alt_malloc_lock.o)
                              /OPT/altera/12.1/tools/nios2eds/bin/gnu/H-i686-pc-linux-gnu/bin/../lib/gcc/nios2-elf/4.1.2/../../../../nios2-elf/lib/mno-hw-mul/libc.a(lib_a-mallocr.o) (__malloc_lock)
../Evo_Synth_bsp//libucosii_bsp.a(os_core.o)
                              ../Evo_Synth_bsp//libucosii_bsp.a(alt_main.o) (OSInit)
../Evo_Synth_bsp//libucosii_bsp.a(os_dbg.o)
                              ../Evo_Synth_bsp//libucosii_bsp.a(os_core.o) (OSDebugInit)
../Evo_Synth_bsp//libucosii_bsp.a(os_flag.o)
                              ../Evo_Synth_bsp//libucosii_bsp.a(os_core.o) (OS_FlagInit)
../Evo_Synth_bsp//libucosii_bsp.a(os_mem.o)
                              ../Evo_Synth_bsp//libucosii_bsp.a(os_core.o) (OS_MemInit)
../Evo_Synth_bsp//libucosii_bsp.a(os_q.o)
                              ../Evo_Synth_bsp//libucosii_bsp.a(os_core.o) (OS_QInit)
../Evo_Synth_bsp//libucosii_bsp.a(os_sem.o)
                              ../Evo_Synth_bsp//libucosii_bsp.a(alt_main.o) (OSSemCreate)
../Evo_Synth_bsp//libucosii_bsp.a(os_task.o)
                              obj/default/hello_ucosii.o (OSTaskCreateExt)
../Evo_Synth_bsp//libucosii_bsp.a(os_time.o)
                              ../Evo_Synth_bsp//libucosii_bsp.a(os_core.o) (OSTimeDly)
../Evo_Synth_bsp//libucosii_bsp.a(alt_sys_init.o)
                              ../Evo_Synth_bsp//libucosii_bsp.a(alt_main.o) (alt_irq_init)
../Evo_Synth_bsp//libucosii_bsp.a(altera_avalon_jtag_uart_fd.o)
                              ../Evo_Synth_bsp//libucosii_bsp.a(alt_sys_init.o) (altera_avalon_jtag_uart_read_fd)
../Evo_Synth_bsp//libucosii_bsp.a(altera_avalon_jtag_uart_init.o)
                              ../Evo_Synth_bsp//libucosii_bsp.a(alt_sys_init.o) (altera_avalon_jtag_uart_init)
../Evo_Synth_bsp//libucosii_bsp.a(altera_avalon_jtag_uart_ioctl.o)
                              ../Evo_Synth_bsp//libucosii_bsp.a(altera_avalon_jtag_uart_fd.o) (altera_avalon_jtag_uart_ioctl)
../Evo_Synth_bsp//libucosii_bsp.a(altera_avalon_jtag_uart_read.o)
                              ../Evo_Synth_bsp//libucosii_bsp.a(altera_avalon_jtag_uart_fd.o) (altera_avalon_jtag_uart_read)
../Evo_Synth_bsp//libucosii_bsp.a(altera_avalon_jtag_uart_write.o)
                              ../Evo_Synth_bsp//libucosii_bsp.a(altera_avalon_jtag_uart_fd.o) (altera_avalon_jtag_uart_write)
../Evo_Synth_bsp//libucosii_bsp.a(altera_avalon_timer_sc.o)
                              ../Evo_Synth_bsp//libucosii_bsp.a(alt_sys_init.o) (alt_avalon_timer_sc_init)
../Evo_Synth_bsp//libucosii_bsp.a(altera_up_avalon_audio_and_video_config.o)
                              obj/default/hello_ucosii.o (alt_up_av_config_open_dev)
../Evo_Synth_bsp//libucosii_bsp.a(alt_alarm_start.o)
                              ../Evo_Synth_bsp//libucosii_bsp.a(altera_avalon_jtag_uart_init.o) (alt_alarm_start)
../Evo_Synth_bsp//libucosii_bsp.a(alt_dcache_flush_all.o)
                              ../Evo_Synth_bsp//libucosii_bsp.a(alt_load.o) (alt_dcache_flush_all)
../Evo_Synth_bsp//libucosii_bsp.a(alt_dev_llist_insert.o)
                              ../Evo_Synth_bsp//libucosii_bsp.a(alt_sys_init.o) (alt_dev_llist_insert)
../Evo_Synth_bsp//libucosii_bsp.a(alt_do_ctors.o)
                              ../Evo_Synth_bsp//libucosii_bsp.a(alt_main.o) (_do_ctors)
../Evo_Synth_bsp//libucosii_bsp.a(alt_do_dtors.o)
                              ../Evo_Synth_bsp//libucosii_bsp.a(alt_main.o) (_do_dtors)
../Evo_Synth_bsp//libucosii_bsp.a(alt_find_dev.o)
                              ../Evo_Synth_bsp//libucosii_bsp.a(altera_up_avalon_audio_and_video_config.o) (alt_find_dev)
../Evo_Synth_bsp//libucosii_bsp.a(alt_icache_flush_all.o)
                              ../Evo_Synth_bsp//libucosii_bsp.a(alt_load.o) (alt_icache_flush_all)
../Evo_Synth_bsp//libucosii_bsp.a(alt_iic.o)
                              ../Evo_Synth_bsp//libucosii_bsp.a(altera_avalon_jtag_uart_init.o) (alt_ic_isr_register)
../Evo_Synth_bsp//libucosii_bsp.a(alt_iic_isr_register.o)
                              ../Evo_Synth_bsp//libucosii_bsp.a(alt_iic.o) (alt_iic_isr_register)
../Evo_Synth_bsp//libucosii_bsp.a(alt_io_redirect.o)
                              ../Evo_Synth_bsp//libucosii_bsp.a(alt_main.o) (alt_io_redirect)
../Evo_Synth_bsp//libucosii_bsp.a(alt_irq_entry.o)
                              ../Evo_Synth_bsp//libucosii_bsp.a(alt_iic_isr_register.o) (alt_irq_entry)
../Evo_Synth_bsp//libucosii_bsp.a(alt_irq_handler.o)
                              ../Evo_Synth_bsp//libucosii_bsp.a(alt_iic_isr_register.o) (alt_irq_handler)
../Evo_Synth_bsp//libucosii_bsp.a(alt_irq_vars.o)
                              ../Evo_Synth_bsp//libucosii_bsp.a(alt_iic.o) (alt_irq_active)
../Evo_Synth_bsp//libucosii_bsp.a(alt_open.o)
                              ../Evo_Synth_bsp//libucosii_bsp.a(alt_io_redirect.o) (open)
../Evo_Synth_bsp//libucosii_bsp.a(alt_tick.o)
                              ../Evo_Synth_bsp//libucosii_bsp.a(altera_avalon_jtag_uart_init.o) (_alt_tick_rate)
../Evo_Synth_bsp//libucosii_bsp.a(altera_nios2_qsys_irq.o)
                              ../Evo_Synth_bsp//libucosii_bsp.a(alt_sys_init.o) (altera_nios2_qsys_irq_init)
../Evo_Synth_bsp//libucosii_bsp.a(os_cpu_a.o)
                              ../Evo_Synth_bsp//libucosii_bsp.a(os_core.o) (OSIntCtxSw)
../Evo_Synth_bsp//libucosii_bsp.a(os_cpu_c.o)
                              ../Evo_Synth_bsp//libucosii_bsp.a(os_task.o) (OSTaskStkInit)
../Evo_Synth_bsp//libucosii_bsp.a(alt_exception_entry.o)
                              ../Evo_Synth_bsp//libucosii_bsp.a(alt_irq_entry.o) (alt_exception)
../Evo_Synth_bsp//libucosii_bsp.a(alt_find_file.o)
                              ../Evo_Synth_bsp//libucosii_bsp.a(alt_open.o) (alt_find_file)
../Evo_Synth_bsp//libucosii_bsp.a(alt_get_fd.o)
                              ../Evo_Synth_bsp//libucosii_bsp.a(alt_open.o) (alt_get_fd)
/OPT/altera/12.1/tools/nios2eds/bin/gnu/H-i686-pc-linux-gnu/bin/../lib/gcc/nios2-elf/4.1.2/../../../../nios2-elf/lib/mno-hw-mul/libc.a(lib_a-atexit.o)
                              ../Evo_Synth_bsp//libucosii_bsp.a(alt_main.o) (atexit)
/OPT/altera/12.1/tools/nios2eds/bin/gnu/H-i686-pc-linux-gnu/bin/../lib/gcc/nios2-elf/4.1.2/../../../../nios2-elf/lib/mno-hw-mul/libc.a(lib_a-exit.o)
                              ../Evo_Synth_bsp//libucosii_bsp.a(alt_main.o) (exit)
/OPT/altera/12.1/tools/nios2eds/bin/gnu/H-i686-pc-linux-gnu/bin/../lib/gcc/nios2-elf/4.1.2/../../../../nios2-elf/lib/mno-hw-mul/libc.a(lib_a-memcmp.o)
                              ../Evo_Synth_bsp//libucosii_bsp.a(alt_find_dev.o) (memcmp)
/OPT/altera/12.1/tools/nios2eds/bin/gnu/H-i686-pc-linux-gnu/bin/../lib/gcc/nios2-elf/4.1.2/../../../../nios2-elf/lib/mno-hw-mul/libc.a(lib_a-__atexit.o)
                              /OPT/altera/12.1/tools/nios2eds/bin/gnu/H-i686-pc-linux-gnu/bin/../lib/gcc/nios2-elf/4.1.2/../../../../nios2-elf/lib/mno-hw-mul/libc.a(lib_a-atexit.o) (__register_exitproc)
/OPT/altera/12.1/tools/nios2eds/bin/gnu/H-i686-pc-linux-gnu/bin/../lib/gcc/nios2-elf/4.1.2/../../../../nios2-elf/lib/mno-hw-mul/libc.a(lib_a-__call_atexit.o)
                              /OPT/altera/12.1/tools/nios2eds/bin/gnu/H-i686-pc-linux-gnu/bin/../lib/gcc/nios2-elf/4.1.2/../../../../nios2-elf/lib/mno-hw-mul/libc.a(lib_a-exit.o) (__call_exitprocs)
../Evo_Synth_bsp//libucosii_bsp.a(alt_exit.o)
                              /OPT/altera/12.1/tools/nios2eds/bin/gnu/H-i686-pc-linux-gnu/bin/../lib/gcc/nios2-elf/4.1.2/../../../../nios2-elf/lib/mno-hw-mul/libc.a(lib_a-exit.o) (_exit)

Allocating common symbols
Common symbol       size              file

alt_irq             0x100             ../Evo_Synth_bsp//libucosii_bsp.a(alt_irq_handler.o)
OSLockNesting       0x1               ../Evo_Synth_bsp//libucosii_bsp.a(os_core.o)
OSRunning           0x1               ../Evo_Synth_bsp//libucosii_bsp.a(os_core.o)
OSIdleCtr           0x4               ../Evo_Synth_bsp//libucosii_bsp.a(os_core.o)
OSPrioHighRdy       0x1               ../Evo_Synth_bsp//libucosii_bsp.a(os_core.o)
errno               0x4               /OPT/altera/12.1/tools/nios2eds/bin/gnu/H-i686-pc-linux-gnu/bin/../lib/gcc/nios2-elf/4.1.2/../../../../nios2-elf/lib/mno-hw-mul/libc.a(lib_a-int_errno.o)
alt_heapsem         0x4               ../Evo_Synth_bsp//libucosii_bsp.a(alt_malloc_lock.o)
OSFlagTbl           0x370             ../Evo_Synth_bsp//libucosii_bsp.a(os_core.o)
OSPrioCur           0x1               ../Evo_Synth_bsp//libucosii_bsp.a(os_core.o)
OSTCBList           0x4               ../Evo_Synth_bsp//libucosii_bsp.a(os_core.o)
alt_fd_list_lock    0x4               ../Evo_Synth_bsp//libucosii_bsp.a(alt_dev.o)
OSMemTbl            0xc30             ../Evo_Synth_bsp//libucosii_bsp.a(os_core.o)
OSTickStepState     0x1               ../Evo_Synth_bsp//libucosii_bsp.a(os_core.o)
OSTaskStatStk       0x800             ../Evo_Synth_bsp//libucosii_bsp.a(os_core.o)
OSCtxSwCtr          0x4               ../Evo_Synth_bsp//libucosii_bsp.a(os_core.o)
OSIdleCtrMax        0x4               ../Evo_Synth_bsp//libucosii_bsp.a(os_core.o)
OSTCBFreeList       0x4               ../Evo_Synth_bsp//libucosii_bsp.a(os_core.o)
OSCPUUsage          0x1               ../Evo_Synth_bsp//libucosii_bsp.a(os_core.o)
OSTaskCtr           0x1               ../Evo_Synth_bsp//libucosii_bsp.a(os_core.o)
OSMemFreeList       0x4               ../Evo_Synth_bsp//libucosii_bsp.a(os_core.o)
OSQTbl              0x1e0             ../Evo_Synth_bsp//libucosii_bsp.a(os_core.o)
audio_data_task_stk
                    0x2000            obj/default/hello_ucosii.o
OSTCBHighRdy        0x4               ../Evo_Synth_bsp//libucosii_bsp.a(os_core.o)
OSQFreeList         0x4               ../Evo_Synth_bsp//libucosii_bsp.a(os_core.o)
OSRdyGrp            0x1               ../Evo_Synth_bsp//libucosii_bsp.a(os_core.o)
_atexit0            0x190             /OPT/altera/12.1/tools/nios2eds/bin/gnu/H-i686-pc-linux-gnu/bin/../lib/gcc/nios2-elf/4.1.2/../../../../nios2-elf/lib/mno-hw-mul/libc.a(lib_a-atexit.o)
OSRdyTbl            0x3               ../Evo_Synth_bsp//libucosii_bsp.a(os_core.o)
OSEventFreeList     0x4               ../Evo_Synth_bsp//libucosii_bsp.a(os_core.o)
OSIntNesting        0x1               ../Evo_Synth_bsp//libucosii_bsp.a(os_core.o)
OSTCBCur            0x4               ../Evo_Synth_bsp//libucosii_bsp.a(os_core.o)
OSTime              0x4               ../Evo_Synth_bsp//libucosii_bsp.a(os_core.o)
OSTaskIdleStk       0x800             ../Evo_Synth_bsp//libucosii_bsp.a(os_core.o)
OSEventTbl          0xb40             ../Evo_Synth_bsp//libucosii_bsp.a(os_core.o)
OSTCBTbl            0x510             ../Evo_Synth_bsp//libucosii_bsp.a(os_core.o)
OSFlagFreeList      0x4               ../Evo_Synth_bsp//libucosii_bsp.a(os_core.o)
OSStatRdy           0x1               ../Evo_Synth_bsp//libucosii_bsp.a(os_core.o)
OSTCBPrioTbl        0x54              ../Evo_Synth_bsp//libucosii_bsp.a(os_core.o)
alt_envsem          0x4               ../Evo_Synth_bsp//libucosii_bsp.a(alt_env_lock.o)
OSIdleCtrRun        0x4               ../Evo_Synth_bsp//libucosii_bsp.a(os_core.o)

Memory Configuration

Name             Origin             Length             Attributes
sdram_0          0x00800000         0x00800000
sram_0           0x01080000         0x00080000
reset            0x01104000         0x00000020
onchip_memory2_0 0x01104020         0x00003fe0
*default*        0x00000000         0xffffffff

Linker script and memory map

LOAD ../Evo_Synth_bsp//obj/HAL/src/crt0.o
LOAD obj/default/hello_ucosii.o
LOAD /OPT/altera/12.1/tools/nios2eds/bin/gnu/H-i686-pc-linux-gnu/bin/../lib/gcc/nios2-elf/4.1.2/../../../../nios2-elf/lib/mno-hw-mul/libstdc++.a
LOAD /OPT/altera/12.1/tools/nios2eds/bin/gnu/H-i686-pc-linux-gnu/bin/../lib/gcc/nios2-elf/4.1.2/../../../../nios2-elf/lib/mno-hw-mul/libm.a
LOAD /OPT/altera/12.1/tools/nios2eds/bin/gnu/H-i686-pc-linux-gnu/bin/../lib/gcc/nios2-elf/4.1.2/mno-hw-mul/libgcc.a
START GROUP
LOAD /OPT/altera/12.1/tools/nios2eds/bin/gnu/H-i686-pc-linux-gnu/bin/../lib/gcc/nios2-elf/4.1.2/../../../../nios2-elf/lib/mno-hw-mul/libc.a
LOAD /OPT/altera/12.1/tools/nios2eds/bin/gnu/H-i686-pc-linux-gnu/bin/../lib/gcc/nios2-elf/4.1.2/mno-hw-mul/libgcc.a
LOAD ../Evo_Synth_bsp//libucosii_bsp.a
END GROUP
LOAD /OPT/altera/12.1/tools/nios2eds/bin/gnu/H-i686-pc-linux-gnu/bin/../lib/gcc/nios2-elf/4.1.2/mno-hw-mul/libgcc.a
                0x00800000                __alt_mem_sdram_0 = 0x800000
                0x01080000                __alt_mem_sram_0 = 0x1080000
                0x01104000                __alt_mem_onchip_memory2_0 = 0x1104000

.entry          0x01104000       0x20
 *(.entry)
 .entry         0x01104000       0x20 ../Evo_Synth_bsp//obj/HAL/src/crt0.o
                0x01104000                __reset

.exceptions     0x01104020      0x19c load address 0x00800000
                0x01104020                PROVIDE (__ram_exceptions_start, ABSOLUTE (.))
                0x01104020                . = ALIGN (0x20)
 *(.irq)
 *(.exceptions.entry.label)
 .exceptions.entry.label
                0x01104020        0x0 ../Evo_Synth_bsp//libucosii_bsp.a(alt_irq_entry.o)
                0x01104020                alt_irq_entry
 .exceptions.entry.label
                0x01104020        0x0 ../Evo_Synth_bsp//libucosii_bsp.a(alt_exception_entry.o)
                0x01104020                alt_exception
 *(.exceptions.entry.user)
 *(.exceptions.entry)
 .exceptions.entry
                0x01104020       0x54 ../Evo_Synth_bsp//libucosii_bsp.a(alt_exception_entry.o)
 *(.exceptions.irqtest.user)
 *(.exceptions.irqtest)
 .exceptions.irqtest
                0x01104074       0x10 ../Evo_Synth_bsp//libucosii_bsp.a(alt_irq_entry.o)
 *(.exceptions.irqhandler.user)
 *(.exceptions.irqhandler)
 .exceptions.irqhandler
                0x01104084        0x4 ../Evo_Synth_bsp//libucosii_bsp.a(alt_irq_entry.o)
 *(.exceptions.irqreturn.user)
 *(.exceptions.irqreturn)
 .exceptions.irqreturn
                0x01104088        0x4 ../Evo_Synth_bsp//libucosii_bsp.a(alt_irq_entry.o)
 *(.exceptions.notirq.label)
 .exceptions.notirq.label
                0x0110408c        0x0 ../Evo_Synth_bsp//libucosii_bsp.a(alt_irq_entry.o)
 *(.exceptions.notirq.user)
 *(.exceptions.notirq)
 .exceptions.notirq
                0x0110408c        0x8 ../Evo_Synth_bsp//libucosii_bsp.a(alt_exception_entry.o)
 *(.exceptions.soft.user)
 *(.exceptions.soft)
 *(.exceptions.unknown.user)
 *(.exceptions.unknown)
 .exceptions.unknown
                0x01104094        0x4 ../Evo_Synth_bsp//libucosii_bsp.a(alt_exception_entry.o)
 *(.exceptions.exit.label)
 .exceptions.exit.label
                0x01104098        0x0 ../Evo_Synth_bsp//libucosii_bsp.a(alt_irq_entry.o)
 .exceptions.exit.label
                0x01104098        0x0 ../Evo_Synth_bsp//libucosii_bsp.a(alt_exception_entry.o)
 *(.exceptions.exit.user)
 *(.exceptions.exit)
 .exceptions.exit
                0x01104098       0x54 ../Evo_Synth_bsp//libucosii_bsp.a(alt_exception_entry.o)
 *(.exceptions)
 .exceptions    0x011040ec       0xd0 ../Evo_Synth_bsp//libucosii_bsp.a(alt_irq_handler.o)
                0x011040ec                alt_irq_handler
                0x011041bc                PROVIDE (__ram_exceptions_end, ABSOLUTE (.))
                0x00800000                PROVIDE (__flash_exceptions_start, LOADADDR (.exceptions))

.text           0x0080019c     0xeca4
                0x0080019c                PROVIDE (stext, ABSOLUTE (.))
 *(.interp)
 *(.hash)
 *(.dynsym)
 *(.dynstr)
 *(.gnu.version)
 *(.gnu.version_d)
 *(.gnu.version_r)
 *(.rel.init)
 *(.rela.init)
 *(.rel.text .rel.text.* .rel.gnu.linkonce.t.*)
 *(.rela.text .rela.text.* .rela.gnu.linkonce.t.*)
 *(.rel.fini)
 *(.rela.fini)
 *(.rel.rodata .rel.rodata.* .rel.gnu.linkonce.r.*)
 *(.rela.rodata .rela.rodata.* .rela.gnu.linkonce.r.*)
 *(.rel.data .rel.data.* .rel.gnu.linkonce.d.*)
 *(.rela.data .rela.data.* .rela.gnu.linkonce.d.*)
 *(.rel.tdata .rel.tdata.* .rel.gnu.linkonce.td.*)
 *(.rela.tdata .rela.tdata.* .rela.gnu.linkonce.td.*)
 *(.rel.tbss .rel.tbss.* .rel.gnu.linkonce.tb.*)
 *(.rela.tbss .rela.tbss.* .rela.gnu.linkonce.tb.*)
 *(.rel.ctors)
 *(.rela.ctors)
 *(.rel.dtors)
 *(.rela.dtors)
 *(.rel.got)
 *(.rela.got)
 *(.rel.sdata .rel.sdata.* .rel.gnu.linkonce.s.*)
 *(.rela.sdata .rela.sdata.* .rela.gnu.linkonce.s.*)
 *(.rel.sbss .rel.sbss.* .rel.gnu.linkonce.sb.*)
 *(.rela.sbss .rela.sbss.* .rela.gnu.linkonce.sb.*)
 *(.rel.sdata2 .rel.sdata2.* .rel.gnu.linkonce.s2.*)
 *(.rela.sdata2 .rela.sdata2.* .rela.gnu.linkonce.s2.*)
 *(.rel.sbss2 .rel.sbss2.* .rel.gnu.linkonce.sb2.*)
 *(.rela.sbss2 .rela.sbss2.* .rela.gnu.linkonce.sb2.*)
 *(.rel.bss .rel.bss.* .rel.gnu.linkonce.b.*)
 *(.rela.bss .rela.bss.* .rela.gnu.linkonce.b.*)
 *(.rel.plt)
 *(.rela.plt)
 *(.rel.dyn)
 *(.init)
 *(.plt)
 *(.text .stub .text.* .gnu.linkonce.t.*)
 .text          0x0080019c       0x3c ../Evo_Synth_bsp//obj/HAL/src/crt0.o
                0x0080019c                _start
 .text          0x008001d8      0x21c obj/default/hello_ucosii.o
                0x008001d8                audio_data_task
                0x00800388                main
 .text          0x008003f4      0x14c /OPT/altera/12.1/tools/nios2eds/bin/gnu/H-i686-pc-linux-gnu/bin/../lib/gcc/nios2-elf/4.1.2/mno-hw-mul/libgcc.a(lib2-divmod.o)
                0x00800470                __divsi3
                0x008004d0                __modsi3
                0x00800530                __udivsi3
                0x00800538                __umodsi3
 .text          0x00800540       0x38 /OPT/altera/12.1/tools/nios2eds/bin/gnu/H-i686-pc-linux-gnu/bin/../lib/gcc/nios2-elf/4.1.2/mno-hw-mul/libgcc.a(lib2-mul.o)
                0x00800540                __mulsi3
 .text          0x00800578       0xb4 /OPT/altera/12.1/tools/nios2eds/bin/gnu/H-i686-pc-linux-gnu/bin/../lib/gcc/nios2-elf/4.1.2/../../../../nios2-elf/lib/mno-hw-mul/libc.a(lib_a-puts.o)
                0x00800578                _puts_r
                0x00800618                puts
 .text          0x0080062c       0x74 /OPT/altera/12.1/tools/nios2eds/bin/gnu/H-i686-pc-linux-gnu/bin/../lib/gcc/nios2-elf/4.1.2/../../../../nios2-elf/lib/mno-hw-mul/libc.a(lib_a-strlen.o)
                0x0080062c                strlen
 .text          0x008006a0      0x49c /OPT/altera/12.1/tools/nios2eds/bin/gnu/H-i686-pc-linux-gnu/bin/../lib/gcc/nios2-elf/4.1.2/../../../../nios2-elf/lib/mno-hw-mul/libc.a(lib_a-fvwrite.o)
                0x008006a0                __sfvwrite_r
 .text          0x00800b3c        0x0 /OPT/altera/12.1/tools/nios2eds/bin/gnu/H-i686-pc-linux-gnu/bin/../lib/gcc/nios2-elf/4.1.2/../../../../nios2-elf/lib/mno-hw-mul/libc.a(lib_a-impure.o)
 .text          0x00800b3c      0x740 /OPT/altera/12.1/tools/nios2eds/bin/gnu/H-i686-pc-linux-gnu/bin/../lib/gcc/nios2-elf/4.1.2/../../../../nios2-elf/lib/mno-hw-mul/libc.a(lib_a-mallocr.o)
                0x00800b3c                _malloc_r
 .text          0x0080127c       0xe4 /OPT/altera/12.1/tools/nios2eds/bin/gnu/H-i686-pc-linux-gnu/bin/../lib/gcc/nios2-elf/4.1.2/../../../../nios2-elf/lib/mno-hw-mul/libc.a(lib_a-memchr.o)
                0x0080127c                memchr
 .text          0x00801360       0xa0 /OPT/altera/12.1/tools/nios2eds/bin/gnu/H-i686-pc-linux-gnu/bin/../lib/gcc/nios2-elf/4.1.2/../../../../nios2-elf/lib/mno-hw-mul/libc.a(lib_a-memcpy.o)
                0x00801360                memcpy
 .text          0x00801400       0xe0 /OPT/altera/12.1/tools/nios2eds/bin/gnu/H-i686-pc-linux-gnu/bin/../lib/gcc/nios2-elf/4.1.2/../../../../nios2-elf/lib/mno-hw-mul/libc.a(lib_a-memmove.o)
                0x00801400                memmove
 .text          0x008014e0      0x5f4 /OPT/altera/12.1/tools/nios2eds/bin/gnu/H-i686-pc-linux-gnu/bin/../lib/gcc/nios2-elf/4.1.2/../../../../nios2-elf/lib/mno-hw-mul/libc.a(lib_a-reallocr.o)
                0x008014e0                _realloc_r
 .text          0x00801ad4       0x70 /OPT/altera/12.1/tools/nios2eds/bin/gnu/H-i686-pc-linux-gnu/bin/../lib/gcc/nios2-elf/4.1.2/../../../../nios2-elf/lib/mno-hw-mul/libc.a(lib_a-sbrkr.o)
                0x00801ad4                _sbrk_r
 .text          0x00801b44      0x13c /OPT/altera/12.1/tools/nios2eds/bin/gnu/H-i686-pc-linux-gnu/bin/../lib/gcc/nios2-elf/4.1.2/../../../../nios2-elf/lib/mno-hw-mul/libc.a(lib_a-wsetup.o)
                0x00801b44                __swsetup_r
 .text          0x00801c80      0x230 /OPT/altera/12.1/tools/nios2eds/bin/gnu/H-i686-pc-linux-gnu/bin/../lib/gcc/nios2-elf/4.1.2/../../../../nios2-elf/lib/mno-hw-mul/libc.a(lib_a-fflush.o)
                0x00801c80                _fflush_r
                0x00801e7c                fflush
 .text          0x00801eb0      0x2f4 /OPT/altera/12.1/tools/nios2eds/bin/gnu/H-i686-pc-linux-gnu/bin/../lib/gcc/nios2-elf/4.1.2/../../../../nios2-elf/lib/mno-hw-mul/libc.a(lib_a-findfp.o)
                0x00801f08                __sfp_lock_acquire
                0x00801f0c                __sfp_lock_release
                0x00801f10                __sinit_lock_acquire
                0x00801f14                __sinit_lock_release
                0x00801f18                __sinit
                0x00801fcc                __fp_unlock_all
                0x00801fe4                __fp_lock_all
                0x00801ffc                _cleanup_r
                0x00802008                _cleanup
                0x00802018                __sfmoreglue
                0x008020b4                __sfp
 .text          0x008021a4      0x440 /OPT/altera/12.1/tools/nios2eds/bin/gnu/H-i686-pc-linux-gnu/bin/../lib/gcc/nios2-elf/4.1.2/../../../../nios2-elf/lib/mno-hw-mul/libc.a(lib_a-freer.o)
                0x008021a4                _malloc_trim_r
                0x008022d0                _free_r
 .text          0x008025e4      0x180 /OPT/altera/12.1/tools/nios2eds/bin/gnu/H-i686-pc-linux-gnu/bin/../lib/gcc/nios2-elf/4.1.2/../../../../nios2-elf/lib/mno-hw-mul/libc.a(lib_a-fwalk.o)
                0x008025e4                _fwalk_reent
                0x008026ac                _fwalk
 .text          0x00802764        0x0 /OPT/altera/12.1/tools/nios2eds/bin/gnu/H-i686-pc-linux-gnu/bin/../lib/gcc/nios2-elf/4.1.2/../../../../nios2-elf/lib/mno-hw-mul/libc.a(lib_a-int_errno.o)
 .text          0x00802764      0x194 /OPT/altera/12.1/tools/nios2eds/bin/gnu/H-i686-pc-linux-gnu/bin/../lib/gcc/nios2-elf/4.1.2/../../../../nios2-elf/lib/mno-hw-mul/libc.a(lib_a-makebuf.o)
                0x00802764                __smakebuf_r
 .text          0x008028f8       0x98 /OPT/altera/12.1/tools/nios2eds/bin/gnu/H-i686-pc-linux-gnu/bin/../lib/gcc/nios2-elf/4.1.2/../../../../nios2-elf/lib/mno-hw-mul/libc.a(lib_a-memset.o)
                0x008028f8                memset
 .text          0x00802990      0x14c /OPT/altera/12.1/tools/nios2eds/bin/gnu/H-i686-pc-linux-gnu/bin/../lib/gcc/nios2-elf/4.1.2/../../../../nios2-elf/lib/mno-hw-mul/libc.a(lib_a-stdio.o)
                0x00802990                __sclose
                0x00802998                __sseek
                0x00802a00                __swrite
                0x00802a7c                __sread
 .text          0x00802adc       0x78 /OPT/altera/12.1/tools/nios2eds/bin/gnu/H-i686-pc-linux-gnu/bin/../lib/gcc/nios2-elf/4.1.2/../../../../nios2-elf/lib/mno-hw-mul/libc.a(lib_a-writer.o)
                0x00802adc                _write_r
 .text          0x00802b54       0x70 /OPT/altera/12.1/tools/nios2eds/bin/gnu/H-i686-pc-linux-gnu/bin/../lib/gcc/nios2-elf/4.1.2/../../../../nios2-elf/lib/mno-hw-mul/libc.a(lib_a-closer.o)
                0x00802b54                _close_r
 .text          0x00802bc4      0x124 /OPT/altera/12.1/tools/nios2eds/bin/gnu/H-i686-pc-linux-gnu/bin/../lib/gcc/nios2-elf/4.1.2/../../../../nios2-elf/lib/mno-hw-mul/libc.a(lib_a-fclose.o)
                0x00802bc4                _fclose_r
                0x00802cd4                fclose
 .text          0x00802ce8       0x74 /OPT/altera/12.1/tools/nios2eds/bin/gnu/H-i686-pc-linux-gnu/bin/../lib/gcc/nios2-elf/4.1.2/../../../../nios2-elf/lib/mno-hw-mul/libc.a(lib_a-fstatr.o)
                0x00802ce8                _fstat_r
 .text          0x00802d5c       0x70 /OPT/altera/12.1/tools/nios2eds/bin/gnu/H-i686-pc-linux-gnu/bin/../lib/gcc/nios2-elf/4.1.2/../../../../nios2-elf/lib/mno-hw-mul/libc.a(lib_a-isattyr.o)
                0x00802d5c                _isatty_r
 .text          0x00802dcc       0x78 /OPT/altera/12.1/tools/nios2eds/bin/gnu/H-i686-pc-linux-gnu/bin/../lib/gcc/nios2-elf/4.1.2/../../../../nios2-elf/lib/mno-hw-mul/libc.a(lib_a-lseekr.o)
                0x00802dcc                _lseek_r
 .text          0x00802e44       0x78 /OPT/altera/12.1/tools/nios2eds/bin/gnu/H-i686-pc-linux-gnu/bin/../lib/gcc/nios2-elf/4.1.2/../../../../nios2-elf/lib/mno-hw-mul/libc.a(lib_a-readr.o)
                0x00802e44                _read_r
 .text          0x00802ebc      0x160 ../Evo_Synth_bsp//libucosii_bsp.a(alt_close.o)
                0x00802ebc                close
 .text          0x0080301c       0x2c ../Evo_Synth_bsp//libucosii_bsp.a(alt_dev.o)
 .text          0x00803048        0x0 ../Evo_Synth_bsp//libucosii_bsp.a(alt_errno.o)
 .text          0x00803048      0x138 ../Evo_Synth_bsp//libucosii_bsp.a(alt_fstat.o)
                0x00803048                fstat
 .text          0x00803180      0x124 ../Evo_Synth_bsp//libucosii_bsp.a(alt_isatty.o)
                0x00803180                isatty
 .text          0x008032a4       0xec ../Evo_Synth_bsp//libucosii_bsp.a(alt_load.o)
                0x008032a4                alt_load
 .text          0x00803390      0x154 ../Evo_Synth_bsp//libucosii_bsp.a(alt_lseek.o)
                0x00803390                lseek
 .text          0x008034e4       0xc8 ../Evo_Synth_bsp//libucosii_bsp.a(alt_main.o)
                0x008034e4                alt_main
 .text          0x008035ac      0x184 ../Evo_Synth_bsp//libucosii_bsp.a(alt_read.o)
                0x008035ac                read
 .text          0x00803730       0x78 ../Evo_Synth_bsp//libucosii_bsp.a(alt_release_fd.o)
                0x00803730                alt_release_fd
 .text          0x008037a8       0xbc ../Evo_Synth_bsp//libucosii_bsp.a(alt_sbrk.o)
                0x008037a8                sbrk
 .text          0x00803864      0x184 ../Evo_Synth_bsp//libucosii_bsp.a(alt_write.o)
                0x00803864                write
 .text          0x008039e8      0x108 ../Evo_Synth_bsp//libucosii_bsp.a(alt_env_lock.o)
                0x008039e8                __env_lock
                0x00803a94                __env_unlock
 .text          0x00803af0      0x1d8 ../Evo_Synth_bsp//libucosii_bsp.a(alt_malloc_lock.o)
                0x00803af0                __malloc_lock
                0x00803bf8                __malloc_unlock
 .text          0x00803cc8     0x2128 ../Evo_Synth_bsp//libucosii_bsp.a(os_core.o)
                0x00803cc8                OSEventNameGet
                0x00803df8                OSEventNameSet
                0x00803f3c                OSEventPendMulti
                0x008045f0                OSInit
                0x00804644                OSIntEnter
                0x008046c0                OSIntExit
                0x008047c0                OSSchedLock
                0x0080484c                OSSchedUnlock
                0x00804930                OSStart
                0x008049a0                OSStatInit
                0x00804a4c                OSTimeTick
                0x00804c8c                OSVersion
                0x00804cac                OS_Dummy
                0x00804cc8                OS_EventTaskRdy
                0x00804e5c                OS_EventTaskWait
                0x00804f6c                OS_EventTaskWaitMulti
                0x008050c0                OS_EventTaskRemove
                0x00805178                OS_EventTaskRemoveMulti
                0x0080527c                OS_EventWaitListInit
                0x00805648                OS_MemClr
                0x0080569c                OS_MemCopy
                0x00805708                OS_Sched
                0x0080584c                OS_StrCopy
                0x008058cc                OS_StrLen
                0x00805924                OS_TaskIdle
                0x00805980                OS_TaskStat
                0x00805a48                OS_TaskStatStkChk
                0x00805b10                OS_TCBInit
 .text          0x00805df0      0x18c ../Evo_Synth_bsp//libucosii_bsp.a(os_dbg.o)
                0x00805df0                OSDebugInit
 .text          0x00805f7c     0x193c ../Evo_Synth_bsp//libucosii_bsp.a(os_flag.o)
                0x00805f7c                OSFlagAccept
                0x008062b0                OSFlagCreate
                0x008063ec                OSFlagDel
                0x00806694                OSFlagNameGet
                0x008067d8                OSFlagNameSet
                0x0080692c                OSFlagPend
                0x00806f70                OSFlagPendGetFlagsRdy
                0x00806fd8                OSFlagPost
                0x00807380                OSFlagQuery
                0x00807618                OS_FlagInit
                0x0080780c                OS_FlagUnlink
 .text          0x008078b8      0x80c ../Evo_Synth_bsp//libucosii_bsp.a(os_mem.o)
                0x008078b8                OSMemCreate
                0x00807ad4                OSMemGet
                0x00807bd8                OSMemNameGet
                0x00807ce4                OSMemNameSet
                0x00807e04                OSMemPut
                0x00807ef4                OSMemQuery
                0x00807ff0                OS_MemInit
 .text          0x008080c4     0x1334 ../Evo_Synth_bsp//libucosii_bsp.a(os_q.o)
                0x008080c4                OSQAccept
                0x00808218                OSQCreate
                0x0080842c                OSQDel
                0x0080872c                OSQFlush
                0x008087f4                OSQPend
                0x00808b14                OSQPendAbort
                0x00808c90                OSQPost
                0x00808e10                OSQPostFront
                0x00808f98                OSQPostOpt
                0x008091cc                OSQQuery
                0x0080934c                OS_QInit
 .text          0x008093f8      0xbc8 ../Evo_Synth_bsp//libucosii_bsp.a(os_sem.o)
                0x008093f8                OSSemAccept
                0x008094b8                OSSemCreate
                0x008095cc                OSSemDel
                0x0080986c                OSSemPend
                0x00809ae8                OSSemPendAbort
                0x00809c64                OSSemPost
                0x00809d8c                OSSemQuery
                0x00809ebc                OSSemSet
 .text          0x00809fc0     0x1a40 ../Evo_Synth_bsp//libucosii_bsp.a(os_task.o)
                0x00809fc0                OSTaskChangePrio
                0x0080a534                OSTaskCreate
                0x0080a708                OSTaskCreateExt
                0x0080a908                OSTaskDel
                0x0080ad14                OSTaskDelReq
                0x0080ae84                OSTaskNameGet
                0x0080b03c                OSTaskNameSet
                0x0080b200                OSTaskResume
                0x0080b418                OSTaskStkChk
                0x0080b614                OSTaskSuspend
                0x0080b840                OSTaskQuery
                0x0080b984                OS_TaskStkClr
 .text          0x0080ba00      0x5a0 ../Evo_Synth_bsp//libucosii_bsp.a(os_time.o)
                0x0080ba00                OSTimeDly
                0x0080bb4c                OSTimeDlyHMSM
                0x0080bcc8                OSTimeDlyResume
                0x0080bed8                OSTimeGet
                0x0080bf3c                OSTimeSet
 .text          0x0080bfa0       0xd4 ../Evo_Synth_bsp//libucosii_bsp.a(alt_sys_init.o)
                0x0080bfa0                alt_irq_init
                0x0080bfd4                alt_sys_init
 .text          0x0080c074      0x148 ../Evo_Synth_bsp//libucosii_bsp.a(altera_avalon_jtag_uart_fd.o)
                0x0080c074                altera_avalon_jtag_uart_read_fd
                0x0080c0cc                altera_avalon_jtag_uart_write_fd
                0x0080c124                altera_avalon_jtag_uart_close_fd
                0x0080c16c                altera_avalon_jtag_uart_ioctl_fd
 .text          0x0080c1bc      0x584 ../Evo_Synth_bsp//libucosii_bsp.a(altera_avalon_jtag_uart_init.o)
                0x0080c1bc                altera_avalon_jtag_uart_init
                0x0080c6cc                altera_avalon_jtag_uart_close
 .text          0x0080c740       0xf4 ../Evo_Synth_bsp//libucosii_bsp.a(altera_avalon_jtag_uart_ioctl.o)
                0x0080c740                altera_avalon_jtag_uart_ioctl
 .text          0x0080c834      0x2c0 ../Evo_Synth_bsp//libucosii_bsp.a(altera_avalon_jtag_uart_read.o)
                0x0080c834                altera_avalon_jtag_uart_read
 .text          0x0080caf4      0x2dc ../Evo_Synth_bsp//libucosii_bsp.a(altera_avalon_jtag_uart_write.o)
                0x0080caf4                altera_avalon_jtag_uart_write
 .text          0x0080cdd0      0x100 ../Evo_Synth_bsp//libucosii_bsp.a(altera_avalon_timer_sc.o)
                0x0080ce40                alt_avalon_timer_sc_init
 .text          0x0080ced0      0x788 ../Evo_Synth_bsp//libucosii_bsp.a(altera_up_avalon_audio_and_video_config.o)
                0x0080ced0                alt_up_av_config_open_dev
                0x0080cf34                alt_up_av_config_write_data
                0x0080cf98                alt_up_av_config_read_data
                0x0080d024                alt_up_av_config_reset
                0x0080d05c                alt_up_av_config_enable_interrupt
                0x0080d094                alt_up_av_config_disable_interrupt
                0x0080d0c4                alt_up_av_config_read_acknowledge
                0x0080d12c                alt_up_av_config_read_ready
                0x0080d164                alt_up_av_config_write_audio_cfg_register
                0x0080d210                alt_up_av_config_read_video_cfg_register
                0x0080d308                alt_up_av_config_write_video_cfg_register
                0x0080d400                alt_up_av_config_read_DC2_cfg_register
                0x0080d464                alt_up_av_config_write_DC2_cfg_register
                0x0080d4c8                alt_up_av_config_read_D5M_cfg_register
                0x0080d52c                alt_up_av_config_write_D5M_cfg_register
                0x0080d590                alt_up_av_config_read_LTM_cfg_register
                0x0080d5f4                alt_up_av_config_write_LTM_cfg_register
 .text          0x0080d658      0x154 ../Evo_Synth_bsp//libucosii_bsp.a(alt_alarm_start.o)
                0x0080d658                alt_alarm_start
 .text          0x0080d7ac       0x1c ../Evo_Synth_bsp//libucosii_bsp.a(alt_dcache_flush_all.o)
                0x0080d7ac                alt_dcache_flush_all
 .text          0x0080d7c8      0x114 ../Evo_Synth_bsp//libucosii_bsp.a(alt_dev_llist_insert.o)
                0x0080d7c8                alt_dev_llist_insert
 .text          0x0080d8dc       0x64 ../Evo_Synth_bsp//libucosii_bsp.a(alt_do_ctors.o)
                0x0080d8dc                _do_ctors
 .text          0x0080d940       0x64 ../Evo_Synth_bsp//libucosii_bsp.a(alt_do_dtors.o)
                0x0080d940                _do_dtors
 .text          0x0080d9a4       0x94 ../Evo_Synth_bsp//libucosii_bsp.a(alt_find_dev.o)
                0x0080d9a4                alt_find_dev
 .text          0x0080da38       0x1c ../Evo_Synth_bsp//libucosii_bsp.a(alt_icache_flush_all.o)
                0x0080da38                alt_icache_flush_all
 .text          0x0080da54      0x1d4 ../Evo_Synth_bsp//libucosii_bsp.a(alt_iic.o)
                0x0080da54                alt_ic_isr_register
                0x0080daa4                alt_ic_irq_enable
                0x0080db40                alt_ic_irq_disable
                0x0080dbe0                alt_ic_irq_enabled
 .text          0x0080dc28       0xf8 ../Evo_Synth_bsp//libucosii_bsp.a(alt_iic_isr_register.o)
                0x0080dc28                alt_iic_isr_register
 .text          0x0080dd20      0x150 ../Evo_Synth_bsp//libucosii_bsp.a(alt_io_redirect.o)
                0x0080ddf8                alt_io_redirect
 .text          0x0080de70        0x0 ../Evo_Synth_bsp//libucosii_bsp.a(alt_irq_entry.o)
 .text          0x0080de70        0x0 ../Evo_Synth_bsp//libucosii_bsp.a(alt_irq_handler.o)
 .text          0x0080de70        0x0 ../Evo_Synth_bsp//libucosii_bsp.a(alt_irq_vars.o)
 .text          0x0080de70      0x2e4 ../Evo_Synth_bsp//libucosii_bsp.a(alt_open.o)
                0x0080df68                open
 .text          0x0080e154      0x1a8 ../Evo_Synth_bsp//libucosii_bsp.a(alt_tick.o)
                0x0080e154                alt_alarm_stop
                0x0080e1ec                alt_tick
 .text          0x0080e2fc       0x20 ../Evo_Synth_bsp//libucosii_bsp.a(altera_nios2_qsys_irq.o)
                0x0080e2fc                altera_nios2_qsys_irq_init
 .text          0x0080e31c       0xd0 ../Evo_Synth_bsp//libucosii_bsp.a(os_cpu_a.o)
                0x0080e31c                OSCtxSw
                0x0080e31c                OSIntCtxSw
                0x0080e3a8                OSStartHighRdy
                0x0080e3c8                OSStartTsk
 .text          0x0080e3ec      0x418 ../Evo_Synth_bsp//libucosii_bsp.a(os_cpu_c.o)
                0x0080e3ec                OSTaskStkInit
                0x0080e6fc                OSTaskCreateHook
                0x0080e71c                OSTaskDelHook
                0x0080e73c                OSTaskSwHook
                0x0080e758                OSTaskStatHook
                0x0080e774                OSTimeTickHook
                0x0080e790                OSInitHookBegin
                0x0080e7ac                OSInitHookEnd
                0x0080e7c8                OSTaskIdleHook
                0x0080e7e4                OSTCBInitHook
 .text          0x0080e804        0x0 ../Evo_Synth_bsp//libucosii_bsp.a(alt_exception_entry.o)
 .text          0x0080e804      0x120 ../Evo_Synth_bsp//libucosii_bsp.a(alt_find_file.o)
                0x0080e804                alt_find_file
 .text          0x0080e924      0x104 ../Evo_Synth_bsp//libucosii_bsp.a(alt_get_fd.o)
                0x0080e924                alt_get_fd
 .text          0x0080ea28       0x14 /OPT/altera/12.1/tools/nios2eds/bin/gnu/H-i686-pc-linux-gnu/bin/../lib/gcc/nios2-elf/4.1.2/../../../../nios2-elf/lib/mno-hw-mul/libc.a(lib_a-atexit.o)
                0x0080ea28                atexit
 .text          0x0080ea3c       0x38 /OPT/altera/12.1/tools/nios2eds/bin/gnu/H-i686-pc-linux-gnu/bin/../lib/gcc/nios2-elf/4.1.2/../../../../nios2-elf/lib/mno-hw-mul/libc.a(lib_a-exit.o)
                0x0080ea3c                exit
 .text          0x0080ea74       0x74 /OPT/altera/12.1/tools/nios2eds/bin/gnu/H-i686-pc-linux-gnu/bin/../lib/gcc/nios2-elf/4.1.2/../../../../nios2-elf/lib/mno-hw-mul/libc.a(lib_a-memcmp.o)
                0x0080ea74                memcmp
 .text          0x0080eae8      0x134 /OPT/altera/12.1/tools/nios2eds/bin/gnu/H-i686-pc-linux-gnu/bin/../lib/gcc/nios2-elf/4.1.2/../../../../nios2-elf/lib/mno-hw-mul/libc.a(lib_a-__atexit.o)
                0x0080eae8                __register_exitproc
 .text          0x0080ec1c      0x1b4 /OPT/altera/12.1/tools/nios2eds/bin/gnu/H-i686-pc-linux-gnu/bin/../lib/gcc/nios2-elf/4.1.2/../../../../nios2-elf/lib/mno-hw-mul/libc.a(lib_a-__call_atexit.o)
                0x0080ec20                __call_exitprocs
 .text          0x0080edd0       0x6c ../Evo_Synth_bsp//libucosii_bsp.a(alt_exit.o)
                0x0080ee10                _exit
 *(.gnu.warning.*)
 *(.fini)
                0x0080ee3c                PROVIDE (__etext, ABSOLUTE (.))
                0x0080ee3c                PROVIDE (_etext, ABSOLUTE (.))
                0x0080ee3c                PROVIDE (etext, ABSOLUTE (.))
 *(.eh_frame_hdr)
                0x0080ee3c                . = ALIGN (0x4)
                0x0080ee3c                PROVIDE (__preinit_array_start, ABSOLUTE (.))
 *(.preinit_array)
                0x0080ee3c                PROVIDE (__preinit_array_end, ABSOLUTE (.))
                0x0080ee3c                PROVIDE (__init_array_start, ABSOLUTE (.))
 *(.init_array)
                0x0080ee3c                PROVIDE (__init_array_end, ABSOLUTE (.))
                0x0080ee3c                PROVIDE (__fini_array_start, ABSOLUTE (.))
 *(.fini_array)
                0x0080ee3c                PROVIDE (__fini_array_end, ABSOLUTE (.))
 *(.eh_frame)
 *(.gcc_except_table)
 *(.dynamic)
                0x0080ee3c                PROVIDE (__CTOR_LIST__, ABSOLUTE (.))
 *(.ctors)
 *(SORT(.ctors.*))
 .ctors.65535   0x0080ee3c        0x4 /OPT/altera/12.1/tools/nios2eds/bin/gnu/H-i686-pc-linux-gnu/bin/../lib/gcc/nios2-elf/4.1.2/../../../../nios2-elf/lib/mno-hw-mul/libc.a(lib_a-__call_atexit.o)
                0x0080ee40                PROVIDE (__CTOR_END__, ABSOLUTE (.))
                0x0080ee40                PROVIDE (__DTOR_LIST__, ABSOLUTE (.))
 *(.dtors)
 *(SORT(.dtors.*))
                0x0080ee40                PROVIDE (__DTOR_END__, ABSOLUTE (.))
 *(.jcr)
                0x0080ee40                . = ALIGN (0x4)

.rodata         0x0080ee40      0x1b8
                0x0080ee40                PROVIDE (__ram_rodata_start, ABSOLUTE (.))
                0x0080ee40                . = ALIGN (0x4)
 *(.rodata .rodata.* .gnu.linkonce.r.*)
 .rodata        0x0080ee40       0x38 obj/default/hello_ucosii.o
 .rodata.str1.4
                0x0080ee78        0x2 /OPT/altera/12.1/tools/nios2eds/bin/gnu/H-i686-pc-linux-gnu/bin/../lib/gcc/nios2-elf/4.1.2/../../../../nios2-elf/lib/mno-hw-mul/libc.a(lib_a-puts.o)
                                  0x4 (size before relaxing)
 *fill*         0x0080ee7a        0x2 00
 .rodata.str1.4
                0x0080ee7c        0x4 /OPT/altera/12.1/tools/nios2eds/bin/gnu/H-i686-pc-linux-gnu/bin/../lib/gcc/nios2-elf/4.1.2/../../../../nios2-elf/lib/mno-hw-mul/libc.a(lib_a-impure.o)
 .rodata        0x0080ee80        0xc ../Evo_Synth_bsp//libucosii_bsp.a(alt_dev.o)
 .rodata        0x0080ee8c       0x14 ../Evo_Synth_bsp//libucosii_bsp.a(alt_main.o)
 .rodata        0x0080eea0      0x120 ../Evo_Synth_bsp//libucosii_bsp.a(os_core.o)
                0x0080eea0                OSUnMapTbl
 .rodata        0x0080efc0       0x34 ../Evo_Synth_bsp//libucosii_bsp.a(alt_sys_init.o)
 .rodata        0x0080eff4        0x4 ../Evo_Synth_bsp//libucosii_bsp.a(os_cpu_c.o)
 *(.rodata1)
                0x0080eff8                . = ALIGN (0x4)
                0x0080eff8                PROVIDE (__ram_rodata_end, ABSOLUTE (.))
                0x0080ee40                PROVIDE (__flash_rodata_start, LOADADDR (.rodata))

.rwdata         0x0080eff8     0x1b00 load address 0x00810af8
                0x0080eff8                PROVIDE (__ram_rwdata_start, ABSOLUTE (.))
                0x0080eff8                . = ALIGN (0x4)
 *(.got.plt)
 *(.got)
 *(.data1)
 *(.data .data.* .gnu.linkonce.d.*)
 .data          0x0080eff8        0x0 ../Evo_Synth_bsp//obj/HAL/src/crt0.o
 .data          0x0080eff8        0x0 obj/default/hello_ucosii.o
 .data          0x0080eff8        0x0 /OPT/altera/12.1/tools/nios2eds/bin/gnu/H-i686-pc-linux-gnu/bin/../lib/gcc/nios2-elf/4.1.2/mno-hw-mul/libgcc.a(lib2-divmod.o)
 .data          0x0080eff8        0x0 /OPT/altera/12.1/tools/nios2eds/bin/gnu/H-i686-pc-linux-gnu/bin/../lib/gcc/nios2-elf/4.1.2/mno-hw-mul/libgcc.a(lib2-mul.o)
 .data          0x0080eff8        0x0 /OPT/altera/12.1/tools/nios2eds/bin/gnu/H-i686-pc-linux-gnu/bin/../lib/gcc/nios2-elf/4.1.2/../../../../nios2-elf/lib/mno-hw-mul/libc.a(lib_a-puts.o)
 .data          0x0080eff8        0x0 /OPT/altera/12.1/tools/nios2eds/bin/gnu/H-i686-pc-linux-gnu/bin/../lib/gcc/nios2-elf/4.1.2/../../../../nios2-elf/lib/mno-hw-mul/libc.a(lib_a-strlen.o)
 .data          0x0080eff8        0x0 /OPT/altera/12.1/tools/nios2eds/bin/gnu/H-i686-pc-linux-gnu/bin/../lib/gcc/nios2-elf/4.1.2/../../../../nios2-elf/lib/mno-hw-mul/libc.a(lib_a-fvwrite.o)
 .data          0x0080eff8      0x400 /OPT/altera/12.1/tools/nios2eds/bin/gnu/H-i686-pc-linux-gnu/bin/../lib/gcc/nios2-elf/4.1.2/../../../../nios2-elf/lib/mno-hw-mul/libc.a(lib_a-impure.o)
 .data          0x0080f3f8      0x408 /OPT/altera/12.1/tools/nios2eds/bin/gnu/H-i686-pc-linux-gnu/bin/../lib/gcc/nios2-elf/4.1.2/../../../../nios2-elf/lib/mno-hw-mul/libc.a(lib_a-mallocr.o)
                0x0080f3f8                __malloc_av_
 .data          0x0080f800        0x0 /OPT/altera/12.1/tools/nios2eds/bin/gnu/H-i686-pc-linux-gnu/bin/../lib/gcc/nios2-elf/4.1.2/../../../../nios2-elf/lib/mno-hw-mul/libc.a(lib_a-memchr.o)
 .data          0x0080f800        0x0 /OPT/altera/12.1/tools/nios2eds/bin/gnu/H-i686-pc-linux-gnu/bin/../lib/gcc/nios2-elf/4.1.2/../../../../nios2-elf/lib/mno-hw-mul/libc.a(lib_a-memcpy.o)
 .data          0x0080f800        0x0 /OPT/altera/12.1/tools/nios2eds/bin/gnu/H-i686-pc-linux-gnu/bin/../lib/gcc/nios2-elf/4.1.2/../../../../nios2-elf/lib/mno-hw-mul/libc.a(lib_a-memmove.o)
 .data          0x0080f800        0x0 /OPT/altera/12.1/tools/nios2eds/bin/gnu/H-i686-pc-linux-gnu/bin/../lib/gcc/nios2-elf/4.1.2/../../../../nios2-elf/lib/mno-hw-mul/libc.a(lib_a-reallocr.o)
 .data          0x0080f800        0x0 /OPT/altera/12.1/tools/nios2eds/bin/gnu/H-i686-pc-linux-gnu/bin/../lib/gcc/nios2-elf/4.1.2/../../../../nios2-elf/lib/mno-hw-mul/libc.a(lib_a-sbrkr.o)
 .data          0x0080f800        0x0 /OPT/altera/12.1/tools/nios2eds/bin/gnu/H-i686-pc-linux-gnu/bin/../lib/gcc/nios2-elf/4.1.2/../../../../nios2-elf/lib/mno-hw-mul/libc.a(lib_a-wsetup.o)
 .data          0x0080f800        0x0 /OPT/altera/12.1/tools/nios2eds/bin/gnu/H-i686-pc-linux-gnu/bin/../lib/gcc/nios2-elf/4.1.2/../../../../nios2-elf/lib/mno-hw-mul/libc.a(lib_a-fflush.o)
 .data          0x0080f800        0x0 /OPT/altera/12.1/tools/nios2eds/bin/gnu/H-i686-pc-linux-gnu/bin/../lib/gcc/nios2-elf/4.1.2/../../../../nios2-elf/lib/mno-hw-mul/libc.a(lib_a-findfp.o)
 .data          0x0080f800        0x0 /OPT/altera/12.1/tools/nios2eds/bin/gnu/H-i686-pc-linux-gnu/bin/../lib/gcc/nios2-elf/4.1.2/../../../../nios2-elf/lib/mno-hw-mul/libc.a(lib_a-freer.o)
 .data          0x0080f800        0x0 /OPT/altera/12.1/tools/nios2eds/bin/gnu/H-i686-pc-linux-gnu/bin/../lib/gcc/nios2-elf/4.1.2/../../../../nios2-elf/lib/mno-hw-mul/libc.a(lib_a-fwalk.o)
 .data          0x0080f800        0x0 /OPT/altera/12.1/tools/nios2eds/bin/gnu/H-i686-pc-linux-gnu/bin/../lib/gcc/nios2-elf/4.1.2/../../../../nios2-elf/lib/mno-hw-mul/libc.a(lib_a-int_errno.o)
 .data          0x0080f800        0x0 /OPT/altera/12.1/tools/nios2eds/bin/gnu/H-i686-pc-linux-gnu/bin/../lib/gcc/nios2-elf/4.1.2/../../../../nios2-elf/lib/mno-hw-mul/libc.a(lib_a-makebuf.o)
 .data          0x0080f800        0x0 /OPT/altera/12.1/tools/nios2eds/bin/gnu/H-i686-pc-linux-gnu/bin/../lib/gcc/nios2-elf/4.1.2/../../../../nios2-elf/lib/mno-hw-mul/libc.a(lib_a-memset.o)
 .data          0x0080f800        0x0 /OPT/altera/12.1/tools/nios2eds/bin/gnu/H-i686-pc-linux-gnu/bin/../lib/gcc/nios2-elf/4.1.2/../../../../nios2-elf/lib/mno-hw-mul/libc.a(lib_a-stdio.o)
 .data          0x0080f800        0x0 /OPT/altera/12.1/tools/nios2eds/bin/gnu/H-i686-pc-linux-gnu/bin/../lib/gcc/nios2-elf/4.1.2/../../../../nios2-elf/lib/mno-hw-mul/libc.a(lib_a-writer.o)
 .data          0x0080f800        0x0 /OPT/altera/12.1/tools/nios2eds/bin/gnu/H-i686-pc-linux-gnu/bin/../lib/gcc/nios2-elf/4.1.2/../../../../nios2-elf/lib/mno-hw-mul/libc.a(lib_a-closer.o)
 .data          0x0080f800        0x0 /OPT/altera/12.1/tools/nios2eds/bin/gnu/H-i686-pc-linux-gnu/bin/../lib/gcc/nios2-elf/4.1.2/../../../../nios2-elf/lib/mno-hw-mul/libc.a(lib_a-fclose.o)
 .data          0x0080f800        0x0 /OPT/altera/12.1/tools/nios2eds/bin/gnu/H-i686-pc-linux-gnu/bin/../lib/gcc/nios2-elf/4.1.2/../../../../nios2-elf/lib/mno-hw-mul/libc.a(lib_a-fstatr.o)
 .data          0x0080f800        0x0 /OPT/altera/12.1/tools/nios2eds/bin/gnu/H-i686-pc-linux-gnu/bin/../lib/gcc/nios2-elf/4.1.2/../../../../nios2-elf/lib/mno-hw-mul/libc.a(lib_a-isattyr.o)
 .data          0x0080f800        0x0 /OPT/altera/12.1/tools/nios2eds/bin/gnu/H-i686-pc-linux-gnu/bin/../lib/gcc/nios2-elf/4.1.2/../../../../nios2-elf/lib/mno-hw-mul/libc.a(lib_a-lseekr.o)
 .data          0x0080f800        0x0 /OPT/altera/12.1/tools/nios2eds/bin/gnu/H-i686-pc-linux-gnu/bin/../lib/gcc/nios2-elf/4.1.2/../../../../nios2-elf/lib/mno-hw-mul/libc.a(lib_a-readr.o)
 .data          0x0080f800        0x0 ../Evo_Synth_bsp//libucosii_bsp.a(alt_close.o)
 .data          0x0080f800      0x1a8 ../Evo_Synth_bsp//libucosii_bsp.a(alt_dev.o)
                0x0080f800                alt_dev_null
                0x0080f828                alt_fd_list
 .data          0x0080f9a8        0x0 ../Evo_Synth_bsp//libucosii_bsp.a(alt_errno.o)
 .data          0x0080f9a8        0x0 ../Evo_Synth_bsp//libucosii_bsp.a(alt_fstat.o)
 .data          0x0080f9a8        0x0 ../Evo_Synth_bsp//libucosii_bsp.a(alt_isatty.o)
 .data          0x0080f9a8        0x0 ../Evo_Synth_bsp//libucosii_bsp.a(alt_load.o)
 .data          0x0080f9a8        0x0 ../Evo_Synth_bsp//libucosii_bsp.a(alt_lseek.o)
 .data          0x0080f9a8        0x0 ../Evo_Synth_bsp//libucosii_bsp.a(alt_main.o)
 .data          0x0080f9a8        0x0 ../Evo_Synth_bsp//libucosii_bsp.a(alt_read.o)
 .data          0x0080f9a8        0x0 ../Evo_Synth_bsp//libucosii_bsp.a(alt_release_fd.o)
 .data          0x0080f9a8        0x0 ../Evo_Synth_bsp//libucosii_bsp.a(alt_sbrk.o)
 .data          0x0080f9a8        0x0 ../Evo_Synth_bsp//libucosii_bsp.a(alt_write.o)
 .data          0x0080f9a8        0x0 ../Evo_Synth_bsp//libucosii_bsp.a(alt_env_lock.o)
 .data          0x0080f9a8        0x0 ../Evo_Synth_bsp//libucosii_bsp.a(alt_malloc_lock.o)
 .data          0x0080f9a8        0x0 ../Evo_Synth_bsp//libucosii_bsp.a(os_core.o)
 .data          0x0080f9a8        0x0 ../Evo_Synth_bsp//libucosii_bsp.a(os_dbg.o)
 .data          0x0080f9a8        0x0 ../Evo_Synth_bsp//libucosii_bsp.a(os_flag.o)
 .data          0x0080f9a8        0x0 ../Evo_Synth_bsp//libucosii_bsp.a(os_mem.o)
 .data          0x0080f9a8        0x0 ../Evo_Synth_bsp//libucosii_bsp.a(os_q.o)
 .data          0x0080f9a8        0x0 ../Evo_Synth_bsp//libucosii_bsp.a(os_sem.o)
 .data          0x0080f9a8        0x0 ../Evo_Synth_bsp//libucosii_bsp.a(os_task.o)
 .data          0x0080f9a8        0x0 ../Evo_Synth_bsp//libucosii_bsp.a(os_time.o)
 .data          0x0080f9a8     0x109c ../Evo_Synth_bsp//libucosii_bsp.a(alt_sys_init.o)
 .data          0x00810a44        0x0 ../Evo_Synth_bsp//libucosii_bsp.a(altera_avalon_jtag_uart_fd.o)
 .data          0x00810a44        0x0 ../Evo_Synth_bsp//libucosii_bsp.a(altera_avalon_jtag_uart_init.o)
 .data          0x00810a44        0x0 ../Evo_Synth_bsp//libucosii_bsp.a(altera_avalon_jtag_uart_ioctl.o)
 .data          0x00810a44        0x0 ../Evo_Synth_bsp//libucosii_bsp.a(altera_avalon_jtag_uart_read.o)
 .data          0x00810a44        0x0 ../Evo_Synth_bsp//libucosii_bsp.a(altera_avalon_jtag_uart_write.o)
 .data          0x00810a44        0x0 ../Evo_Synth_bsp//libucosii_bsp.a(altera_avalon_timer_sc.o)
 .data          0x00810a44        0x0 ../Evo_Synth_bsp//libucosii_bsp.a(altera_up_avalon_audio_and_video_config.o)
 .data          0x00810a44        0x0 ../Evo_Synth_bsp//libucosii_bsp.a(alt_alarm_start.o)
 .data          0x00810a44        0x0 ../Evo_Synth_bsp//libucosii_bsp.a(alt_dcache_flush_all.o)
 .data          0x00810a44        0x0 ../Evo_Synth_bsp//libucosii_bsp.a(alt_dev_llist_insert.o)
 .data          0x00810a44        0x0 ../Evo_Synth_bsp//libucosii_bsp.a(alt_do_ctors.o)
 .data          0x00810a44        0x0 ../Evo_Synth_bsp//libucosii_bsp.a(alt_do_dtors.o)
 .data          0x00810a44        0x0 ../Evo_Synth_bsp//libucosii_bsp.a(alt_find_dev.o)
 .data          0x00810a44        0x0 ../Evo_Synth_bsp//libucosii_bsp.a(alt_icache_flush_all.o)
 .data          0x00810a44        0x0 ../Evo_Synth_bsp//libucosii_bsp.a(alt_iic.o)
 .data          0x00810a44        0x0 ../Evo_Synth_bsp//libucosii_bsp.a(alt_iic_isr_register.o)
 .data          0x00810a44        0x0 ../Evo_Synth_bsp//libucosii_bsp.a(alt_io_redirect.o)
 .data          0x00810a44        0x0 ../Evo_Synth_bsp//libucosii_bsp.a(alt_irq_entry.o)
 .data          0x00810a44        0x0 ../Evo_Synth_bsp//libucosii_bsp.a(alt_irq_handler.o)
 .data          0x00810a44        0x0 ../Evo_Synth_bsp//libucosii_bsp.a(alt_irq_vars.o)
 .data          0x00810a44        0x0 ../Evo_Synth_bsp//libucosii_bsp.a(alt_open.o)
 .data          0x00810a44        0x0 ../Evo_Synth_bsp//libucosii_bsp.a(alt_tick.o)
 .data          0x00810a44        0x0 ../Evo_Synth_bsp//libucosii_bsp.a(altera_nios2_qsys_irq.o)
 .data          0x00810a44        0x0 ../Evo_Synth_bsp//libucosii_bsp.a(os_cpu_a.o)
 .data          0x00810a44        0x0 ../Evo_Synth_bsp//libucosii_bsp.a(os_cpu_c.o)
 .data          0x00810a44        0x0 ../Evo_Synth_bsp//libucosii_bsp.a(alt_exception_entry.o)
 .data          0x00810a44        0x0 ../Evo_Synth_bsp//libucosii_bsp.a(alt_find_file.o)
 .data          0x00810a44        0x0 ../Evo_Synth_bsp//libucosii_bsp.a(alt_get_fd.o)
 .data          0x00810a44        0x0 /OPT/altera/12.1/tools/nios2eds/bin/gnu/H-i686-pc-linux-gnu/bin/../lib/gcc/nios2-elf/4.1.2/../../../../nios2-elf/lib/mno-hw-mul/libc.a(lib_a-atexit.o)
 .data          0x00810a44        0x0 /OPT/altera/12.1/tools/nios2eds/bin/gnu/H-i686-pc-linux-gnu/bin/../lib/gcc/nios2-elf/4.1.2/../../../../nios2-elf/lib/mno-hw-mul/libc.a(lib_a-exit.o)
 .data          0x00810a44        0x0 /OPT/altera/12.1/tools/nios2eds/bin/gnu/H-i686-pc-linux-gnu/bin/../lib/gcc/nios2-elf/4.1.2/../../../../nios2-elf/lib/mno-hw-mul/libc.a(lib_a-memcmp.o)
 .data          0x00810a44        0x0 /OPT/altera/12.1/tools/nios2eds/bin/gnu/H-i686-pc-linux-gnu/bin/../lib/gcc/nios2-elf/4.1.2/../../../../nios2-elf/lib/mno-hw-mul/libc.a(lib_a-__atexit.o)
 .data          0x00810a44        0x0 /OPT/altera/12.1/tools/nios2eds/bin/gnu/H-i686-pc-linux-gnu/bin/../lib/gcc/nios2-elf/4.1.2/../../../../nios2-elf/lib/mno-hw-mul/libc.a(lib_a-__call_atexit.o)
 .data          0x00810a44        0x0 ../Evo_Synth_bsp//libucosii_bsp.a(alt_exit.o)
                0x00818a44                _gp = ABSOLUTE ((. + 0x8000))
                0x00818a44                PROVIDE (gp, _gp)
 *(.rwdata .rwdata.*)
 *(.sdata .sdata.* .gnu.linkonce.s.*)
 .sdata         0x00810a44        0x8 /OPT/altera/12.1/tools/nios2eds/bin/gnu/H-i686-pc-linux-gnu/bin/../lib/gcc/nios2-elf/4.1.2/../../../../nios2-elf/lib/mno-hw-mul/libc.a(lib_a-impure.o)
                0x00810a44                _impure_ptr
                0x00810a48                _global_impure_ptr
 .sdata         0x00810a4c        0x8 /OPT/altera/12.1/tools/nios2eds/bin/gnu/H-i686-pc-linux-gnu/bin/../lib/gcc/nios2-elf/4.1.2/../../../../nios2-elf/lib/mno-hw-mul/libc.a(lib_a-mallocr.o)
                0x00810a4c                __malloc_trim_threshold
                0x00810a50                __malloc_sbrk_base
 .sdata         0x00810a54       0x14 ../Evo_Synth_bsp//libucosii_bsp.a(alt_dev.o)
                0x00810a54                alt_fs_list
                0x00810a5c                alt_dev_list
                0x00810a64                alt_max_fd
 .sdata         0x00810a68        0x4 ../Evo_Synth_bsp//libucosii_bsp.a(alt_errno.o)
                0x00810a68                alt_errno
 .sdata         0x00810a6c        0x4 ../Evo_Synth_bsp//libucosii_bsp.a(alt_sbrk.o)
 .sdata         0x00810a70        0x4 ../Evo_Synth_bsp//libucosii_bsp.a(alt_env_lock.o)
 .sdata         0x00810a74        0x4 ../Evo_Synth_bsp//libucosii_bsp.a(alt_malloc_lock.o)
 .sdata         0x00810a78       0x74 ../Evo_Synth_bsp//libucosii_bsp.a(os_dbg.o)
                0x00810a78                OSDebugEn
                0x00810a7c                OSEndiannessTest
                0x00810a80                OSEventEn
                0x00810a82                OSEventMax
                0x00810a84                OSEventNameSize
                0x00810a86                OSEventSize
                0x00810a88                OSEventTblSize
                0x00810a8a                OSEventMultiEn
                0x00810a8c                OSFlagEn
                0x00810a8e                OSFlagGrpSize
                0x00810a90                OSFlagNodeSize
                0x00810a92                OSFlagWidth
                0x00810a94                OSFlagMax
                0x00810a96                OSFlagNameSize
                0x00810a98                OSLowestPrio
                0x00810a9a                OSMboxEn
                0x00810a9c                OSMemEn
                0x00810a9e                OSMemMax
                0x00810aa0                OSMemNameSize
                0x00810aa2                OSMemSize
                0x00810aa4                OSMemTblSize
                0x00810aa6                OSMutexEn
                0x00810aa8                OSPtrSize
                0x00810aaa                OSQEn
                0x00810aac                OSQMax
                0x00810aae                OSQSize
                0x00810ab0                OSRdyTblSize
                0x00810ab2                OSSemEn
                0x00810ab4                OSStkWidth
                0x00810ab6                OSTaskCreateEn
                0x00810ab8                OSTaskCreateExtEn
                0x00810aba                OSTaskDelEn
                0x00810abc                OSTaskIdleStkSize
                0x00810abe                OSTaskProfileEn
                0x00810ac0                OSTaskMax
                0x00810ac2                OSTaskNameSize
                0x00810ac4                OSTaskStatEn
                0x00810ac6                OSTaskStatStkSize
                0x00810ac8                OSTaskStatStkChkEn
                0x00810aca                OSTaskSwHookEn
                0x00810acc                OSTCBPrioTblMax
                0x00810ace                OSTCBSize
                0x00810ad0                OSTicksPerSec
                0x00810ad2                OSTimeTickHookEn
                0x00810ad4                OSVersionNbr
                0x00810ad6                OSTmrEn
                0x00810ad8                OSTmrCfgMax
                0x00810ada                OSTmrCfgNameSize
                0x00810adc                OSTmrCfgWheelSize
                0x00810ade                OSTmrCfgTicksPerSec
                0x00810ae0                OSTmrSize
                0x00810ae2                OSTmrTblSize
                0x00810ae4                OSTmrWheelSize
                0x00810ae6                OSTmrWheelTblSize
                0x00810ae8                OSDataSize
 .sdata         0x00810aec        0x4 ../Evo_Synth_bsp//libucosii_bsp.a(alt_irq_vars.o)
                0x00810aec                alt_priority_mask
 .sdata         0x00810af0        0x8 ../Evo_Synth_bsp//libucosii_bsp.a(alt_tick.o)
                0x00810af0                alt_alarm_list
 *(.sdata2 .sdata2.* .gnu.linkonce.s2.*)
                0x00810af8                . = ALIGN (0x4)
                0x00810af8                _edata = ABSOLUTE (.)
                0x00810af8                PROVIDE (edata, ABSOLUTE (.))
                0x00810af8                PROVIDE (__ram_rwdata_end, ABSOLUTE (.))
                0x00810af8                PROVIDE (__flash_rwdata_start, LOADADDR (.rwdata))

.bss            0x008125f8     0x5568
                0x008125f8                __bss_start = ABSOLUTE (.)
                0x008125f8                PROVIDE (__sbss_start, ABSOLUTE (.))
                0x008125f8                PROVIDE (___sbss_start, ABSOLUTE (.))
 *(.dynsbss)
 *(.sbss .sbss.* .gnu.linkonce.sb.*)
 .sbss          0x008125f8        0xc /OPT/altera/12.1/tools/nios2eds/bin/gnu/H-i686-pc-linux-gnu/bin/../lib/gcc/nios2-elf/4.1.2/../../../../nios2-elf/lib/mno-hw-mul/libc.a(lib_a-mallocr.o)
                0x008125f8                __malloc_top_pad
                0x008125fc                __malloc_max_sbrked_mem
                0x00812600                __malloc_max_total_mem
 .sbss          0x00812604        0x4 /OPT/altera/12.1/tools/nios2eds/bin/gnu/H-i686-pc-linux-gnu/bin/../lib/gcc/nios2-elf/4.1.2/../../../../nios2-elf/lib/mno-hw-mul/libc.a(lib_a-int_errno.o)
                0x00812604                errno
 .sbss          0x00812608        0x4 ../Evo_Synth_bsp//libucosii_bsp.a(alt_dev.o)
                0x00812608                alt_fd_list_lock
 .sbss          0x0081260c        0xc ../Evo_Synth_bsp//libucosii_bsp.a(alt_main.o)
                0x0081260c                alt_argc
                0x00812610                alt_argv
                0x00812614                alt_envp
 .sbss          0x00812618        0x8 ../Evo_Synth_bsp//libucosii_bsp.a(alt_env_lock.o)
                0x0081261c                alt_envsem
 .sbss          0x00812620        0x8 ../Evo_Synth_bsp//libucosii_bsp.a(alt_malloc_lock.o)
                0x00812624                alt_heapsem
 .sbss          0x00812628       0x50 ../Evo_Synth_bsp//libucosii_bsp.a(os_core.o)
                0x00812628                OSLockNesting
                0x00812629                OSRunning
                0x0081262c                OSIdleCtr
                0x00812630                OSPrioHighRdy
                0x00812631                OSPrioCur
                0x00812634                OSTCBList
                0x00812638                OSTickStepState
                0x0081263c                OSCtxSwCtr
                0x00812640                OSIdleCtrMax
                0x00812644                OSTCBFreeList
                0x00812648                OSCPUUsage
                0x00812649                OSTaskCtr
                0x0081264c                OSMemFreeList
                0x00812650                OSTCBHighRdy
                0x00812654                OSQFreeList
                0x00812658                OSRdyGrp
                0x00812659                OSRdyTbl
                0x0081265c                OSEventFreeList
                0x00812660                OSIntNesting
                0x00812664                OSTCBCur
                0x00812668                OSTime
                0x0081266c                OSFlagFreeList
                0x00812670                OSStatRdy
                0x00812674                OSIdleCtrRun
 .sbss          0x00812678        0x4 ../Evo_Synth_bsp//libucosii_bsp.a(alt_irq_vars.o)
                0x00812678                alt_irq_active
 .sbss          0x0081267c        0x8 ../Evo_Synth_bsp//libucosii_bsp.a(alt_tick.o)
                0x0081267c                _alt_tick_rate
                0x00812680                _alt_nticks
 *(.sbss2 .sbss2.* .gnu.linkonce.sb2.*)
 *(.scommon)
                0x00812684                PROVIDE (__sbss_end, ABSOLUTE (.))
                0x00812684                PROVIDE (___sbss_end, ABSOLUTE (.))
 *(.dynbss)
 *(.bss .bss.* .gnu.linkonce.b.*)
 .bss           0x00812684        0x0 ../Evo_Synth_bsp//obj/HAL/src/crt0.o
 .bss           0x00812684        0x0 obj/default/hello_ucosii.o
 .bss           0x00812684        0x0 /OPT/altera/12.1/tools/nios2eds/bin/gnu/H-i686-pc-linux-gnu/bin/../lib/gcc/nios2-elf/4.1.2/mno-hw-mul/libgcc.a(lib2-divmod.o)
 .bss           0x00812684        0x0 /OPT/altera/12.1/tools/nios2eds/bin/gnu/H-i686-pc-linux-gnu/bin/../lib/gcc/nios2-elf/4.1.2/mno-hw-mul/libgcc.a(lib2-mul.o)
 .bss           0x00812684        0x0 /OPT/altera/12.1/tools/nios2eds/bin/gnu/H-i686-pc-linux-gnu/bin/../lib/gcc/nios2-elf/4.1.2/../../../../nios2-elf/lib/mno-hw-mul/libc.a(lib_a-puts.o)
 .bss           0x00812684        0x0 /OPT/altera/12.1/tools/nios2eds/bin/gnu/H-i686-pc-linux-gnu/bin/../lib/gcc/nios2-elf/4.1.2/../../../../nios2-elf/lib/mno-hw-mul/libc.a(lib_a-strlen.o)
 .bss           0x00812684        0x0 /OPT/altera/12.1/tools/nios2eds/bin/gnu/H-i686-pc-linux-gnu/bin/../lib/gcc/nios2-elf/4.1.2/../../../../nios2-elf/lib/mno-hw-mul/libc.a(lib_a-fvwrite.o)
 .bss           0x00812684        0x0 /OPT/altera/12.1/tools/nios2eds/bin/gnu/H-i686-pc-linux-gnu/bin/../lib/gcc/nios2-elf/4.1.2/../../../../nios2-elf/lib/mno-hw-mul/libc.a(lib_a-impure.o)
 .bss           0x00812684       0x28 /OPT/altera/12.1/tools/nios2eds/bin/gnu/H-i686-pc-linux-gnu/bin/../lib/gcc/nios2-elf/4.1.2/../../../../nios2-elf/lib/mno-hw-mul/libc.a(lib_a-mallocr.o)
                0x00812684                __malloc_current_mallinfo
 .bss           0x008126ac        0x0 /OPT/altera/12.1/tools/nios2eds/bin/gnu/H-i686-pc-linux-gnu/bin/../lib/gcc/nios2-elf/4.1.2/../../../../nios2-elf/lib/mno-hw-mul/libc.a(lib_a-memchr.o)
 .bss           0x008126ac        0x0 /OPT/altera/12.1/tools/nios2eds/bin/gnu/H-i686-pc-linux-gnu/bin/../lib/gcc/nios2-elf/4.1.2/../../../../nios2-elf/lib/mno-hw-mul/libc.a(lib_a-memcpy.o)
 .bss           0x008126ac        0x0 /OPT/altera/12.1/tools/nios2eds/bin/gnu/H-i686-pc-linux-gnu/bin/../lib/gcc/nios2-elf/4.1.2/../../../../nios2-elf/lib/mno-hw-mul/libc.a(lib_a-memmove.o)
 .bss           0x008126ac        0x0 /OPT/altera/12.1/tools/nios2eds/bin/gnu/H-i686-pc-linux-gnu/bin/../lib/gcc/nios2-elf/4.1.2/../../../../nios2-elf/lib/mno-hw-mul/libc.a(lib_a-reallocr.o)
 .bss           0x008126ac        0x0 /OPT/altera/12.1/tools/nios2eds/bin/gnu/H-i686-pc-linux-gnu/bin/../lib/gcc/nios2-elf/4.1.2/../../../../nios2-elf/lib/mno-hw-mul/libc.a(lib_a-sbrkr.o)
 .bss           0x008126ac        0x0 /OPT/altera/12.1/tools/nios2eds/bin/gnu/H-i686-pc-linux-gnu/bin/../lib/gcc/nios2-elf/4.1.2/../../../../nios2-elf/lib/mno-hw-mul/libc.a(lib_a-wsetup.o)
 .bss           0x008126ac        0x0 /OPT/altera/12.1/tools/nios2eds/bin/gnu/H-i686-pc-linux-gnu/bin/../lib/gcc/nios2-elf/4.1.2/../../../../nios2-elf/lib/mno-hw-mul/libc.a(lib_a-fflush.o)
 .bss           0x008126ac        0x0 /OPT/altera/12.1/tools/nios2eds/bin/gnu/H-i686-pc-linux-gnu/bin/../lib/gcc/nios2-elf/4.1.2/../../../../nios2-elf/lib/mno-hw-mul/libc.a(lib_a-findfp.o)
 .bss           0x008126ac        0x0 /OPT/altera/12.1/tools/nios2eds/bin/gnu/H-i686-pc-linux-gnu/bin/../lib/gcc/nios2-elf/4.1.2/../../../../nios2-elf/lib/mno-hw-mul/libc.a(lib_a-freer.o)
 .bss           0x008126ac        0x0 /OPT/altera/12.1/tools/nios2eds/bin/gnu/H-i686-pc-linux-gnu/bin/../lib/gcc/nios2-elf/4.1.2/../../../../nios2-elf/lib/mno-hw-mul/libc.a(lib_a-fwalk.o)
 .bss           0x008126ac        0x0 /OPT/altera/12.1/tools/nios2eds/bin/gnu/H-i686-pc-linux-gnu/bin/../lib/gcc/nios2-elf/4.1.2/../../../../nios2-elf/lib/mno-hw-mul/libc.a(lib_a-int_errno.o)
 .bss           0x008126ac        0x0 /OPT/altera/12.1/tools/nios2eds/bin/gnu/H-i686-pc-linux-gnu/bin/../lib/gcc/nios2-elf/4.1.2/../../../../nios2-elf/lib/mno-hw-mul/libc.a(lib_a-makebuf.o)
 .bss           0x008126ac        0x0 /OPT/altera/12.1/tools/nios2eds/bin/gnu/H-i686-pc-linux-gnu/bin/../lib/gcc/nios2-elf/4.1.2/../../../../nios2-elf/lib/mno-hw-mul/libc.a(lib_a-memset.o)
 .bss           0x008126ac        0x0 /OPT/altera/12.1/tools/nios2eds/bin/gnu/H-i686-pc-linux-gnu/bin/../lib/gcc/nios2-elf/4.1.2/../../../../nios2-elf/lib/mno-hw-mul/libc.a(lib_a-stdio.o)
 .bss           0x008126ac        0x0 /OPT/altera/12.1/tools/nios2eds/bin/gnu/H-i686-pc-linux-gnu/bin/../lib/gcc/nios2-elf/4.1.2/../../../../nios2-elf/lib/mno-hw-mul/libc.a(lib_a-writer.o)
 .bss           0x008126ac        0x0 /OPT/altera/12.1/tools/nios2eds/bin/gnu/H-i686-pc-linux-gnu/bin/../lib/gcc/nios2-elf/4.1.2/../../../../nios2-elf/lib/mno-hw-mul/libc.a(lib_a-closer.o)
 .bss           0x008126ac        0x0 /OPT/altera/12.1/tools/nios2eds/bin/gnu/H-i686-pc-linux-gnu/bin/../lib/gcc/nios2-elf/4.1.2/../../../../nios2-elf/lib/mno-hw-mul/libc.a(lib_a-fclose.o)
 .bss           0x008126ac        0x0 /OPT/altera/12.1/tools/nios2eds/bin/gnu/H-i686-pc-linux-gnu/bin/../lib/gcc/nios2-elf/4.1.2/../../../../nios2-elf/lib/mno-hw-mul/libc.a(lib_a-fstatr.o)
 .bss           0x008126ac        0x0 /OPT/altera/12.1/tools/nios2eds/bin/gnu/H-i686-pc-linux-gnu/bin/../lib/gcc/nios2-elf/4.1.2/../../../../nios2-elf/lib/mno-hw-mul/libc.a(lib_a-isattyr.o)
 .bss           0x008126ac        0x0 /OPT/altera/12.1/tools/nios2eds/bin/gnu/H-i686-pc-linux-gnu/bin/../lib/gcc/nios2-elf/4.1.2/../../../../nios2-elf/lib/mno-hw-mul/libc.a(lib_a-lseekr.o)
 .bss           0x008126ac        0x0 /OPT/altera/12.1/tools/nios2eds/bin/gnu/H-i686-pc-linux-gnu/bin/../lib/gcc/nios2-elf/4.1.2/../../../../nios2-elf/lib/mno-hw-mul/libc.a(lib_a-readr.o)
 .bss           0x008126ac        0x0 ../Evo_Synth_bsp//libucosii_bsp.a(alt_close.o)
 .bss           0x008126ac        0x0 ../Evo_Synth_bsp//libucosii_bsp.a(alt_dev.o)
 .bss           0x008126ac        0x0 ../Evo_Synth_bsp//libucosii_bsp.a(alt_errno.o)
 .bss           0x008126ac        0x0 ../Evo_Synth_bsp//libucosii_bsp.a(alt_fstat.o)
 .bss           0x008126ac        0x0 ../Evo_Synth_bsp//libucosii_bsp.a(alt_isatty.o)
 .bss           0x008126ac        0x0 ../Evo_Synth_bsp//libucosii_bsp.a(alt_load.o)
 .bss           0x008126ac        0x0 ../Evo_Synth_bsp//libucosii_bsp.a(alt_lseek.o)
 .bss           0x008126ac        0x0 ../Evo_Synth_bsp//libucosii_bsp.a(alt_main.o)
 .bss           0x008126ac        0x0 ../Evo_Synth_bsp//libucosii_bsp.a(alt_read.o)
 .bss           0x008126ac        0x0 ../Evo_Synth_bsp//libucosii_bsp.a(alt_release_fd.o)
 .bss           0x008126ac        0x0 ../Evo_Synth_bsp//libucosii_bsp.a(alt_sbrk.o)
 .bss           0x008126ac        0x0 ../Evo_Synth_bsp//libucosii_bsp.a(alt_write.o)
 .bss           0x008126ac        0x0 ../Evo_Synth_bsp//libucosii_bsp.a(alt_env_lock.o)
 .bss           0x008126ac        0x0 ../Evo_Synth_bsp//libucosii_bsp.a(alt_malloc_lock.o)
 .bss           0x008126ac        0x0 ../Evo_Synth_bsp//libucosii_bsp.a(os_core.o)
 .bss           0x008126ac        0x0 ../Evo_Synth_bsp//libucosii_bsp.a(os_dbg.o)
 .bss           0x008126ac        0x0 ../Evo_Synth_bsp//libucosii_bsp.a(os_flag.o)
 .bss           0x008126ac        0x0 ../Evo_Synth_bsp//libucosii_bsp.a(os_mem.o)
 .bss           0x008126ac        0x0 ../Evo_Synth_bsp//libucosii_bsp.a(os_q.o)
 .bss           0x008126ac        0x0 ../Evo_Synth_bsp//libucosii_bsp.a(os_sem.o)
 .bss           0x008126ac        0x0 ../Evo_Synth_bsp//libucosii_bsp.a(os_task.o)
 .bss           0x008126ac        0x0 ../Evo_Synth_bsp//libucosii_bsp.a(os_time.o)
 .bss           0x008126ac        0x0 ../Evo_Synth_bsp//libucosii_bsp.a(alt_sys_init.o)
 .bss           0x008126ac        0x0 ../Evo_Synth_bsp//libucosii_bsp.a(altera_avalon_jtag_uart_fd.o)
 .bss           0x008126ac        0x0 ../Evo_Synth_bsp//libucosii_bsp.a(altera_avalon_jtag_uart_init.o)
 .bss           0x008126ac        0x0 ../Evo_Synth_bsp//libucosii_bsp.a(altera_avalon_jtag_uart_ioctl.o)
 .bss           0x008126ac        0x0 ../Evo_Synth_bsp//libucosii_bsp.a(altera_avalon_jtag_uart_read.o)
 .bss           0x008126ac        0x0 ../Evo_Synth_bsp//libucosii_bsp.a(altera_avalon_jtag_uart_write.o)
 .bss           0x008126ac        0x0 ../Evo_Synth_bsp//libucosii_bsp.a(altera_avalon_timer_sc.o)
 .bss           0x008126ac        0x0 ../Evo_Synth_bsp//libucosii_bsp.a(altera_up_avalon_audio_and_video_config.o)
 .bss           0x008126ac        0x0 ../Evo_Synth_bsp//libucosii_bsp.a(alt_alarm_start.o)
 .bss           0x008126ac        0x0 ../Evo_Synth_bsp//libucosii_bsp.a(alt_dcache_flush_all.o)
 .bss           0x008126ac        0x0 ../Evo_Synth_bsp//libucosii_bsp.a(alt_dev_llist_insert.o)
 .bss           0x008126ac        0x0 ../Evo_Synth_bsp//libucosii_bsp.a(alt_do_ctors.o)
 .bss           0x008126ac        0x0 ../Evo_Synth_bsp//libucosii_bsp.a(alt_do_dtors.o)
 .bss           0x008126ac        0x0 ../Evo_Synth_bsp//libucosii_bsp.a(alt_find_dev.o)
 .bss           0x008126ac        0x0 ../Evo_Synth_bsp//libucosii_bsp.a(alt_icache_flush_all.o)
 .bss           0x008126ac        0x0 ../Evo_Synth_bsp//libucosii_bsp.a(alt_iic.o)
 .bss           0x008126ac        0x0 ../Evo_Synth_bsp//libucosii_bsp.a(alt_iic_isr_register.o)
 .bss           0x008126ac        0x0 ../Evo_Synth_bsp//libucosii_bsp.a(alt_io_redirect.o)
 .bss           0x008126ac        0x0 ../Evo_Synth_bsp//libucosii_bsp.a(alt_irq_entry.o)
 .bss           0x008126ac        0x0 ../Evo_Synth_bsp//libucosii_bsp.a(alt_irq_handler.o)
 .bss           0x008126ac        0x0 ../Evo_Synth_bsp//libucosii_bsp.a(alt_irq_vars.o)
 .bss           0x008126ac        0x0 ../Evo_Synth_bsp//libucosii_bsp.a(alt_open.o)
 .bss           0x008126ac        0x0 ../Evo_Synth_bsp//libucosii_bsp.a(alt_tick.o)
 .bss           0x008126ac        0x0 ../Evo_Synth_bsp//libucosii_bsp.a(altera_nios2_qsys_irq.o)
 .bss           0x008126ac        0x0 ../Evo_Synth_bsp//libucosii_bsp.a(os_cpu_a.o)
 .bss           0x008126ac        0x0 ../Evo_Synth_bsp//libucosii_bsp.a(os_cpu_c.o)
 .bss           0x008126ac        0x0 ../Evo_Synth_bsp//libucosii_bsp.a(alt_exception_entry.o)
 .bss           0x008126ac        0x0 ../Evo_Synth_bsp//libucosii_bsp.a(alt_find_file.o)
 .bss           0x008126ac        0x0 ../Evo_Synth_bsp//libucosii_bsp.a(alt_get_fd.o)
 .bss           0x008126ac        0x0 /OPT/altera/12.1/tools/nios2eds/bin/gnu/H-i686-pc-linux-gnu/bin/../lib/gcc/nios2-elf/4.1.2/../../../../nios2-elf/lib/mno-hw-mul/libc.a(lib_a-atexit.o)
 .bss           0x008126ac        0x0 /OPT/altera/12.1/tools/nios2eds/bin/gnu/H-i686-pc-linux-gnu/bin/../lib/gcc/nios2-elf/4.1.2/../../../../nios2-elf/lib/mno-hw-mul/libc.a(lib_a-exit.o)
 .bss           0x008126ac        0x0 /OPT/altera/12.1/tools/nios2eds/bin/gnu/H-i686-pc-linux-gnu/bin/../lib/gcc/nios2-elf/4.1.2/../../../../nios2-elf/lib/mno-hw-mul/libc.a(lib_a-memcmp.o)
 .bss           0x008126ac        0x0 /OPT/altera/12.1/tools/nios2eds/bin/gnu/H-i686-pc-linux-gnu/bin/../lib/gcc/nios2-elf/4.1.2/../../../../nios2-elf/lib/mno-hw-mul/libc.a(lib_a-__atexit.o)
 .bss           0x008126ac        0x0 /OPT/altera/12.1/tools/nios2eds/bin/gnu/H-i686-pc-linux-gnu/bin/../lib/gcc/nios2-elf/4.1.2/../../../../nios2-elf/lib/mno-hw-mul/libc.a(lib_a-__call_atexit.o)
 .bss           0x008126ac        0x0 ../Evo_Synth_bsp//libucosii_bsp.a(alt_exit.o)
 *(COMMON)
 COMMON         0x008126ac     0x2000 obj/default/hello_ucosii.o
                0x008126ac                audio_data_task_stk
 COMMON         0x008146ac     0x3224 ../Evo_Synth_bsp//libucosii_bsp.a(os_core.o)
                0x008146ac                OSFlagTbl
                0x00814a1c                OSMemTbl
                0x0081564c                OSTaskStatStk
                0x00815e4c                OSQTbl
                0x0081602c                OSTaskIdleStk
                0x0081682c                OSEventTbl
                0x0081736c                OSTCBTbl
                0x0081787c                OSTCBPrioTbl
 COMMON         0x008178d0      0x100 ../Evo_Synth_bsp//libucosii_bsp.a(alt_irq_handler.o)
                0x008178d0                alt_irq
 COMMON         0x008179d0      0x190 /OPT/altera/12.1/tools/nios2eds/bin/gnu/H-i686-pc-linux-gnu/bin/../lib/gcc/nios2-elf/4.1.2/../../../../nios2-elf/lib/mno-hw-mul/libc.a(lib_a-atexit.o)
                0x008179d0                _atexit0
                0x00817b60                . = ALIGN (0x4)
                0x00817b60                __bss_end = ABSOLUTE (.)

.sdram_0        0x00817b60        0x0
                0x00817b60                PROVIDE (_alt_partition_sdram_0_start, ABSOLUTE (.))
 *(.sdram_0. sdram_0.*)
                0x00817b60                . = ALIGN (0x4)
                0x00817b60                PROVIDE (_alt_partition_sdram_0_end, ABSOLUTE (.))
                0x00817b60                _end = ABSOLUTE (.)
                0x00817b60                end = ABSOLUTE (.)
                0x00817b60                __alt_stack_base = ABSOLUTE (.)
                0x00817b60                PROVIDE (_alt_partition_sdram_0_load_addr, LOADADDR (.sdram_0))

.sram_0         0x01080000        0x0 load address 0x00817b60
                0x01080000                PROVIDE (_alt_partition_sram_0_start, ABSOLUTE (.))
 *(.sram_0. sram_0.*)
                0x01080000                . = ALIGN (0x4)
                0x01080000                PROVIDE (_alt_partition_sram_0_end, ABSOLUTE (.))
                0x00817b60                PROVIDE (_alt_partition_sram_0_load_addr, LOADADDR (.sram_0))

.onchip_memory2_0
                0x011041bc        0x0 load address 0x00817b60
                0x011041bc                PROVIDE (_alt_partition_onchip_memory2_0_start, ABSOLUTE (.))
 *(.onchip_memory2_0. onchip_memory2_0.*)
                0x011041bc                . = ALIGN (0x4)
                0x011041bc                PROVIDE (_alt_partition_onchip_memory2_0_end, ABSOLUTE (.))
                0x00817b60                PROVIDE (_alt_partition_onchip_memory2_0_load_addr, LOADADDR (.onchip_memory2_0))

.stab
 *(.stab)

.stabstr
 *(.stabstr)

.stab.excl
 *(.stab.excl)

.stab.exclstr
 *(.stab.exclstr)

.stab.index
 *(.stab.index)

.stab.indexstr
 *(.stab.indexstr)

.comment        0x00000000       0x26
 *(.comment)
 .comment       0x00000000       0x26 obj/default/hello_ucosii.o
                                 0x27 (size before relaxing)
 .comment       0x00000000       0x27 /OPT/altera/12.1/tools/nios2eds/bin/gnu/H-i686-pc-linux-gnu/bin/../lib/gcc/nios2-elf/4.1.2/mno-hw-mul/libgcc.a(lib2-divmod.o)
 .comment       0x00000000       0x27 /OPT/altera/12.1/tools/nios2eds/bin/gnu/H-i686-pc-linux-gnu/bin/../lib/gcc/nios2-elf/4.1.2/mno-hw-mul/libgcc.a(lib2-mul.o)
 .comment       0x00000000       0x27 /OPT/altera/12.1/tools/nios2eds/bin/gnu/H-i686-pc-linux-gnu/bin/../lib/gcc/nios2-elf/4.1.2/../../../../nios2-elf/lib/mno-hw-mul/libc.a(lib_a-puts.o)
 .comment       0x00000000       0x27 /OPT/altera/12.1/tools/nios2eds/bin/gnu/H-i686-pc-linux-gnu/bin/../lib/gcc/nios2-elf/4.1.2/../../../../nios2-elf/lib/mno-hw-mul/libc.a(lib_a-strlen.o)
 .comment       0x00000000       0x27 /OPT/altera/12.1/tools/nios2eds/bin/gnu/H-i686-pc-linux-gnu/bin/../lib/gcc/nios2-elf/4.1.2/../../../../nios2-elf/lib/mno-hw-mul/libc.a(lib_a-fvwrite.o)
 .comment       0x00000000       0x27 /OPT/altera/12.1/tools/nios2eds/bin/gnu/H-i686-pc-linux-gnu/bin/../lib/gcc/nios2-elf/4.1.2/../../../../nios2-elf/lib/mno-hw-mul/libc.a(lib_a-impure.o)
 .comment       0x00000000       0x27 /OPT/altera/12.1/tools/nios2eds/bin/gnu/H-i686-pc-linux-gnu/bin/../lib/gcc/nios2-elf/4.1.2/../../../../nios2-elf/lib/mno-hw-mul/libc.a(lib_a-mallocr.o)
 .comment       0x00000000       0x27 /OPT/altera/12.1/tools/nios2eds/bin/gnu/H-i686-pc-linux-gnu/bin/../lib/gcc/nios2-elf/4.1.2/../../../../nios2-elf/lib/mno-hw-mul/libc.a(lib_a-memchr.o)
 .comment       0x00000000       0x27 /OPT/altera/12.1/tools/nios2eds/bin/gnu/H-i686-pc-linux-gnu/bin/../lib/gcc/nios2-elf/4.1.2/../../../../nios2-elf/lib/mno-hw-mul/libc.a(lib_a-memcpy.o)
 .comment       0x00000000       0x27 /OPT/altera/12.1/tools/nios2eds/bin/gnu/H-i686-pc-linux-gnu/bin/../lib/gcc/nios2-elf/4.1.2/../../../../nios2-elf/lib/mno-hw-mul/libc.a(lib_a-memmove.o)
 .comment       0x00000000       0x27 /OPT/altera/12.1/tools/nios2eds/bin/gnu/H-i686-pc-linux-gnu/bin/../lib/gcc/nios2-elf/4.1.2/../../../../nios2-elf/lib/mno-hw-mul/libc.a(lib_a-reallocr.o)
 .comment       0x00000000       0x27 /OPT/altera/12.1/tools/nios2eds/bin/gnu/H-i686-pc-linux-gnu/bin/../lib/gcc/nios2-elf/4.1.2/../../../../nios2-elf/lib/mno-hw-mul/libc.a(lib_a-sbrkr.o)
 .comment       0x00000000       0x27 /OPT/altera/12.1/tools/nios2eds/bin/gnu/H-i686-pc-linux-gnu/bin/../lib/gcc/nios2-elf/4.1.2/../../../../nios2-elf/lib/mno-hw-mul/libc.a(lib_a-wsetup.o)
 .comment       0x00000000       0x27 /OPT/altera/12.1/tools/nios2eds/bin/gnu/H-i686-pc-linux-gnu/bin/../lib/gcc/nios2-elf/4.1.2/../../../../nios2-elf/lib/mno-hw-mul/libc.a(lib_a-fflush.o)
 .comment       0x00000000       0x27 /OPT/altera/12.1/tools/nios2eds/bin/gnu/H-i686-pc-linux-gnu/bin/../lib/gcc/nios2-elf/4.1.2/../../../../nios2-elf/lib/mno-hw-mul/libc.a(lib_a-findfp.o)
 .comment       0x00000000       0x27 /OPT/altera/12.1/tools/nios2eds/bin/gnu/H-i686-pc-linux-gnu/bin/../lib/gcc/nios2-elf/4.1.2/../../../../nios2-elf/lib/mno-hw-mul/libc.a(lib_a-freer.o)
 .comment       0x00000000       0x27 /OPT/altera/12.1/tools/nios2eds/bin/gnu/H-i686-pc-linux-gnu/bin/../lib/gcc/nios2-elf/4.1.2/../../../../nios2-elf/lib/mno-hw-mul/libc.a(lib_a-fwalk.o)
 .comment       0x00000000       0x27 /OPT/altera/12.1/tools/nios2eds/bin/gnu/H-i686-pc-linux-gnu/bin/../lib/gcc/nios2-elf/4.1.2/../../../../nios2-elf/lib/mno-hw-mul/libc.a(lib_a-int_errno.o)
 .comment       0x00000000       0x27 /OPT/altera/12.1/tools/nios2eds/bin/gnu/H-i686-pc-linux-gnu/bin/../lib/gcc/nios2-elf/4.1.2/../../../../nios2-elf/lib/mno-hw-mul/libc.a(lib_a-makebuf.o)
 .comment       0x00000000       0x27 /OPT/altera/12.1/tools/nios2eds/bin/gnu/H-i686-pc-linux-gnu/bin/../lib/gcc/nios2-elf/4.1.2/../../../../nios2-elf/lib/mno-hw-mul/libc.a(lib_a-memset.o)
 .comment       0x00000000       0x27 /OPT/altera/12.1/tools/nios2eds/bin/gnu/H-i686-pc-linux-gnu/bin/../lib/gcc/nios2-elf/4.1.2/../../../../nios2-elf/lib/mno-hw-mul/libc.a(lib_a-stdio.o)
 .comment       0x00000000       0x27 /OPT/altera/12.1/tools/nios2eds/bin/gnu/H-i686-pc-linux-gnu/bin/../lib/gcc/nios2-elf/4.1.2/../../../../nios2-elf/lib/mno-hw-mul/libc.a(lib_a-writer.o)
 .comment       0x00000000       0x27 /OPT/altera/12.1/tools/nios2eds/bin/gnu/H-i686-pc-linux-gnu/bin/../lib/gcc/nios2-elf/4.1.2/../../../../nios2-elf/lib/mno-hw-mul/libc.a(lib_a-closer.o)
 .comment       0x00000000       0x27 /OPT/altera/12.1/tools/nios2eds/bin/gnu/H-i686-pc-linux-gnu/bin/../lib/gcc/nios2-elf/4.1.2/../../../../nios2-elf/lib/mno-hw-mul/libc.a(lib_a-fclose.o)
 .comment       0x00000000       0x27 /OPT/altera/12.1/tools/nios2eds/bin/gnu/H-i686-pc-linux-gnu/bin/../lib/gcc/nios2-elf/4.1.2/../../../../nios2-elf/lib/mno-hw-mul/libc.a(lib_a-fstatr.o)
 .comment       0x00000000       0x27 /OPT/altera/12.1/tools/nios2eds/bin/gnu/H-i686-pc-linux-gnu/bin/../lib/gcc/nios2-elf/4.1.2/../../../../nios2-elf/lib/mno-hw-mul/libc.a(lib_a-isattyr.o)
 .comment       0x00000000       0x27 /OPT/altera/12.1/tools/nios2eds/bin/gnu/H-i686-pc-linux-gnu/bin/../lib/gcc/nios2-elf/4.1.2/../../../../nios2-elf/lib/mno-hw-mul/libc.a(lib_a-lseekr.o)
 .comment       0x00000000       0x27 /OPT/altera/12.1/tools/nios2eds/bin/gnu/H-i686-pc-linux-gnu/bin/../lib/gcc/nios2-elf/4.1.2/../../../../nios2-elf/lib/mno-hw-mul/libc.a(lib_a-readr.o)
 .comment       0x00000000       0x27 ../Evo_Synth_bsp//libucosii_bsp.a(alt_close.o)
 .comment       0x00000000       0x27 ../Evo_Synth_bsp//libucosii_bsp.a(alt_dev.o)
 .comment       0x00000000       0x27 ../Evo_Synth_bsp//libucosii_bsp.a(alt_errno.o)
 .comment       0x00000000       0x27 ../Evo_Synth_bsp//libucosii_bsp.a(alt_fstat.o)
 .comment       0x00000000       0x27 ../Evo_Synth_bsp//libucosii_bsp.a(alt_isatty.o)
 .comment       0x00000000       0x27 ../Evo_Synth_bsp//libucosii_bsp.a(alt_load.o)
 .comment       0x00000000       0x27 ../Evo_Synth_bsp//libucosii_bsp.a(alt_lseek.o)
 .comment       0x00000000       0x27 ../Evo_Synth_bsp//libucosii_bsp.a(alt_main.o)
 .comment       0x00000000       0x27 ../Evo_Synth_bsp//libucosii_bsp.a(alt_read.o)
 .comment       0x00000000       0x27 ../Evo_Synth_bsp//libucosii_bsp.a(alt_release_fd.o)
 .comment       0x00000000       0x27 ../Evo_Synth_bsp//libucosii_bsp.a(alt_sbrk.o)
 .comment       0x00000000       0x27 ../Evo_Synth_bsp//libucosii_bsp.a(alt_write.o)
 .comment       0x00000000       0x27 ../Evo_Synth_bsp//libucosii_bsp.a(alt_env_lock.o)
 .comment       0x00000000       0x27 ../Evo_Synth_bsp//libucosii_bsp.a(alt_malloc_lock.o)
 .comment       0x00000000       0x27 ../Evo_Synth_bsp//libucosii_bsp.a(os_core.o)
 .comment       0x00000000       0x27 ../Evo_Synth_bsp//libucosii_bsp.a(os_dbg.o)
 .comment       0x00000000       0x27 ../Evo_Synth_bsp//libucosii_bsp.a(os_flag.o)
 .comment       0x00000000       0x27 ../Evo_Synth_bsp//libucosii_bsp.a(os_mem.o)
 .comment       0x00000000       0x27 ../Evo_Synth_bsp//libucosii_bsp.a(os_q.o)
 .comment       0x00000000       0x27 ../Evo_Synth_bsp//libucosii_bsp.a(os_sem.o)
 .comment       0x00000000       0x27 ../Evo_Synth_bsp//libucosii_bsp.a(os_task.o)
 .comment       0x00000000       0x27 ../Evo_Synth_bsp//libucosii_bsp.a(os_time.o)
 .comment       0x00000000       0x27 ../Evo_Synth_bsp//libucosii_bsp.a(alt_sys_init.o)
 .comment       0x00000000       0x27 ../Evo_Synth_bsp//libucosii_bsp.a(altera_avalon_jtag_uart_fd.o)
 .comment       0x00000000       0x27 ../Evo_Synth_bsp//libucosii_bsp.a(altera_avalon_jtag_uart_init.o)
 .comment       0x00000000       0x27 ../Evo_Synth_bsp//libucosii_bsp.a(altera_avalon_jtag_uart_ioctl.o)
 .comment       0x00000000       0x27 ../Evo_Synth_bsp//libucosii_bsp.a(altera_avalon_jtag_uart_read.o)
 .comment       0x00000000       0x27 ../Evo_Synth_bsp//libucosii_bsp.a(altera_avalon_jtag_uart_write.o)
 .comment       0x00000000       0x27 ../Evo_Synth_bsp//libucosii_bsp.a(altera_avalon_timer_sc.o)
 .comment       0x00000000       0x27 ../Evo_Synth_bsp//libucosii_bsp.a(altera_up_avalon_audio_and_video_config.o)
 .comment       0x00000000       0x27 ../Evo_Synth_bsp//libucosii_bsp.a(alt_alarm_start.o)
 .comment       0x00000000       0x27 ../Evo_Synth_bsp//libucosii_bsp.a(alt_dcache_flush_all.o)
 .comment       0x00000000       0x27 ../Evo_Synth_bsp//libucosii_bsp.a(alt_dev_llist_insert.o)
 .comment       0x00000000       0x27 ../Evo_Synth_bsp//libucosii_bsp.a(alt_do_ctors.o)
 .comment       0x00000000       0x27 ../Evo_Synth_bsp//libucosii_bsp.a(alt_do_dtors.o)
 .comment       0x00000000       0x27 ../Evo_Synth_bsp//libucosii_bsp.a(alt_find_dev.o)
 .comment       0x00000000       0x27 ../Evo_Synth_bsp//libucosii_bsp.a(alt_icache_flush_all.o)
 .comment       0x00000000       0x27 ../Evo_Synth_bsp//libucosii_bsp.a(alt_iic.o)
 .comment       0x00000000       0x27 ../Evo_Synth_bsp//libucosii_bsp.a(alt_iic_isr_register.o)
 .comment       0x00000000       0x27 ../Evo_Synth_bsp//libucosii_bsp.a(alt_io_redirect.o)
 .comment       0x00000000       0x27 ../Evo_Synth_bsp//libucosii_bsp.a(alt_irq_handler.o)
 .comment       0x00000000       0x27 ../Evo_Synth_bsp//libucosii_bsp.a(alt_irq_vars.o)
 .comment       0x00000000       0x27 ../Evo_Synth_bsp//libucosii_bsp.a(alt_open.o)
 .comment       0x00000000       0x27 ../Evo_Synth_bsp//libucosii_bsp.a(alt_tick.o)
 .comment       0x00000000       0x27 ../Evo_Synth_bsp//libucosii_bsp.a(altera_nios2_qsys_irq.o)
 .comment       0x00000000       0x27 ../Evo_Synth_bsp//libucosii_bsp.a(os_cpu_c.o)
 .comment       0x00000000       0x27 ../Evo_Synth_bsp//libucosii_bsp.a(alt_find_file.o)
 .comment       0x00000000       0x27 ../Evo_Synth_bsp//libucosii_bsp.a(alt_get_fd.o)
 .comment       0x00000000       0x27 /OPT/altera/12.1/tools/nios2eds/bin/gnu/H-i686-pc-linux-gnu/bin/../lib/gcc/nios2-elf/4.1.2/../../../../nios2-elf/lib/mno-hw-mul/libc.a(lib_a-atexit.o)
 .comment       0x00000000       0x27 /OPT/altera/12.1/tools/nios2eds/bin/gnu/H-i686-pc-linux-gnu/bin/../lib/gcc/nios2-elf/4.1.2/../../../../nios2-elf/lib/mno-hw-mul/libc.a(lib_a-exit.o)
 .comment       0x00000000       0x27 /OPT/altera/12.1/tools/nios2eds/bin/gnu/H-i686-pc-linux-gnu/bin/../lib/gcc/nios2-elf/4.1.2/../../../../nios2-elf/lib/mno-hw-mul/libc.a(lib_a-memcmp.o)
 .comment       0x00000000       0x27 /OPT/altera/12.1/tools/nios2eds/bin/gnu/H-i686-pc-linux-gnu/bin/../lib/gcc/nios2-elf/4.1.2/../../../../nios2-elf/lib/mno-hw-mul/libc.a(lib_a-__atexit.o)
 .comment       0x00000000       0x27 /OPT/altera/12.1/tools/nios2eds/bin/gnu/H-i686-pc-linux-gnu/bin/../lib/gcc/nios2-elf/4.1.2/../../../../nios2-elf/lib/mno-hw-mul/libc.a(lib_a-__call_atexit.o)
 .comment       0x00000000       0x27 ../Evo_Synth_bsp//libucosii_bsp.a(alt_exit.o)

.debug
 *(.debug)

.line
 *(.line)

.debug_srcinfo
 *(.debug_srcinfo)

.debug_sfnames
 *(.debug_sfnames)

.debug_aranges  0x00000000      0xa98
 *(.debug_aranges)
 .debug_aranges
                0x00000000       0x28 ../Evo_Synth_bsp//obj/HAL/src/crt0.o
 .debug_aranges
                0x00000028       0x20 obj/default/hello_ucosii.o
 .debug_aranges
                0x00000048       0x20 /OPT/altera/12.1/tools/nios2eds/bin/gnu/H-i686-pc-linux-gnu/bin/../lib/gcc/nios2-elf/4.1.2/mno-hw-mul/libgcc.a(lib2-divmod.o)
 .debug_aranges
                0x00000068       0x20 /OPT/altera/12.1/tools/nios2eds/bin/gnu/H-i686-pc-linux-gnu/bin/../lib/gcc/nios2-elf/4.1.2/mno-hw-mul/libgcc.a(lib2-mul.o)
 .debug_aranges
                0x00000088       0x20 /OPT/altera/12.1/tools/nios2eds/bin/gnu/H-i686-pc-linux-gnu/bin/../lib/gcc/nios2-elf/4.1.2/../../../../nios2-elf/lib/mno-hw-mul/libc.a(lib_a-puts.o)
 .debug_aranges
                0x000000a8       0x20 /OPT/altera/12.1/tools/nios2eds/bin/gnu/H-i686-pc-linux-gnu/bin/../lib/gcc/nios2-elf/4.1.2/../../../../nios2-elf/lib/mno-hw-mul/libc.a(lib_a-strlen.o)
 .debug_aranges
                0x000000c8       0x20 /OPT/altera/12.1/tools/nios2eds/bin/gnu/H-i686-pc-linux-gnu/bin/../lib/gcc/nios2-elf/4.1.2/../../../../nios2-elf/lib/mno-hw-mul/libc.a(lib_a-fvwrite.o)
 .debug_aranges
                0x000000e8       0x20 /OPT/altera/12.1/tools/nios2eds/bin/gnu/H-i686-pc-linux-gnu/bin/../lib/gcc/nios2-elf/4.1.2/../../../../nios2-elf/lib/mno-hw-mul/libc.a(lib_a-mallocr.o)
 .debug_aranges
                0x00000108       0x20 /OPT/altera/12.1/tools/nios2eds/bin/gnu/H-i686-pc-linux-gnu/bin/../lib/gcc/nios2-elf/4.1.2/../../../../nios2-elf/lib/mno-hw-mul/libc.a(lib_a-memchr.o)
 .debug_aranges
                0x00000128       0x20 /OPT/altera/12.1/tools/nios2eds/bin/gnu/H-i686-pc-linux-gnu/bin/../lib/gcc/nios2-elf/4.1.2/../../../../nios2-elf/lib/mno-hw-mul/libc.a(lib_a-memcpy.o)
 .debug_aranges
                0x00000148       0x20 /OPT/altera/12.1/tools/nios2eds/bin/gnu/H-i686-pc-linux-gnu/bin/../lib/gcc/nios2-elf/4.1.2/../../../../nios2-elf/lib/mno-hw-mul/libc.a(lib_a-memmove.o)
 .debug_aranges
                0x00000168       0x20 /OPT/altera/12.1/tools/nios2eds/bin/gnu/H-i686-pc-linux-gnu/bin/../lib/gcc/nios2-elf/4.1.2/../../../../nios2-elf/lib/mno-hw-mul/libc.a(lib_a-reallocr.o)
 .debug_aranges
                0x00000188       0x20 /OPT/altera/12.1/tools/nios2eds/bin/gnu/H-i686-pc-linux-gnu/bin/../lib/gcc/nios2-elf/4.1.2/../../../../nios2-elf/lib/mno-hw-mul/libc.a(lib_a-sbrkr.o)
 .debug_aranges
                0x000001a8       0x20 /OPT/altera/12.1/tools/nios2eds/bin/gnu/H-i686-pc-linux-gnu/bin/../lib/gcc/nios2-elf/4.1.2/../../../../nios2-elf/lib/mno-hw-mul/libc.a(lib_a-wsetup.o)
 .debug_aranges
                0x000001c8       0x20 /OPT/altera/12.1/tools/nios2eds/bin/gnu/H-i686-pc-linux-gnu/bin/../lib/gcc/nios2-elf/4.1.2/../../../../nios2-elf/lib/mno-hw-mul/libc.a(lib_a-fflush.o)
 .debug_aranges
                0x000001e8       0x20 /OPT/altera/12.1/tools/nios2eds/bin/gnu/H-i686-pc-linux-gnu/bin/../lib/gcc/nios2-elf/4.1.2/../../../../nios2-elf/lib/mno-hw-mul/libc.a(lib_a-findfp.o)
 .debug_aranges
                0x00000208       0x20 /OPT/altera/12.1/tools/nios2eds/bin/gnu/H-i686-pc-linux-gnu/bin/../lib/gcc/nios2-elf/4.1.2/../../../../nios2-elf/lib/mno-hw-mul/libc.a(lib_a-freer.o)
 .debug_aranges
                0x00000228       0x20 /OPT/altera/12.1/tools/nios2eds/bin/gnu/H-i686-pc-linux-gnu/bin/../lib/gcc/nios2-elf/4.1.2/../../../../nios2-elf/lib/mno-hw-mul/libc.a(lib_a-fwalk.o)
 .debug_aranges
                0x00000248       0x20 /OPT/altera/12.1/tools/nios2eds/bin/gnu/H-i686-pc-linux-gnu/bin/../lib/gcc/nios2-elf/4.1.2/../../../../nios2-elf/lib/mno-hw-mul/libc.a(lib_a-makebuf.o)
 .debug_aranges
                0x00000268       0x20 /OPT/altera/12.1/tools/nios2eds/bin/gnu/H-i686-pc-linux-gnu/bin/../lib/gcc/nios2-elf/4.1.2/../../../../nios2-elf/lib/mno-hw-mul/libc.a(lib_a-memset.o)
 .debug_aranges
                0x00000288       0x20 /OPT/altera/12.1/tools/nios2eds/bin/gnu/H-i686-pc-linux-gnu/bin/../lib/gcc/nios2-elf/4.1.2/../../../../nios2-elf/lib/mno-hw-mul/libc.a(lib_a-stdio.o)
 .debug_aranges
                0x000002a8       0x20 /OPT/altera/12.1/tools/nios2eds/bin/gnu/H-i686-pc-linux-gnu/bin/../lib/gcc/nios2-elf/4.1.2/../../../../nios2-elf/lib/mno-hw-mul/libc.a(lib_a-writer.o)
 .debug_aranges
                0x000002c8       0x20 /OPT/altera/12.1/tools/nios2eds/bin/gnu/H-i686-pc-linux-gnu/bin/../lib/gcc/nios2-elf/4.1.2/../../../../nios2-elf/lib/mno-hw-mul/libc.a(lib_a-closer.o)
 .debug_aranges
                0x000002e8       0x20 /OPT/altera/12.1/tools/nios2eds/bin/gnu/H-i686-pc-linux-gnu/bin/../lib/gcc/nios2-elf/4.1.2/../../../../nios2-elf/lib/mno-hw-mul/libc.a(lib_a-fclose.o)
 .debug_aranges
                0x00000308       0x20 /OPT/altera/12.1/tools/nios2eds/bin/gnu/H-i686-pc-linux-gnu/bin/../lib/gcc/nios2-elf/4.1.2/../../../../nios2-elf/lib/mno-hw-mul/libc.a(lib_a-fstatr.o)
 .debug_aranges
                0x00000328       0x20 /OPT/altera/12.1/tools/nios2eds/bin/gnu/H-i686-pc-linux-gnu/bin/../lib/gcc/nios2-elf/4.1.2/../../../../nios2-elf/lib/mno-hw-mul/libc.a(lib_a-isattyr.o)
 .debug_aranges
                0x00000348       0x20 /OPT/altera/12.1/tools/nios2eds/bin/gnu/H-i686-pc-linux-gnu/bin/../lib/gcc/nios2-elf/4.1.2/../../../../nios2-elf/lib/mno-hw-mul/libc.a(lib_a-lseekr.o)
 .debug_aranges
                0x00000368       0x20 /OPT/altera/12.1/tools/nios2eds/bin/gnu/H-i686-pc-linux-gnu/bin/../lib/gcc/nios2-elf/4.1.2/../../../../nios2-elf/lib/mno-hw-mul/libc.a(lib_a-readr.o)
 .debug_aranges
                0x00000388       0x20 ../Evo_Synth_bsp//libucosii_bsp.a(alt_close.o)
 .debug_aranges
                0x000003a8       0x20 ../Evo_Synth_bsp//libucosii_bsp.a(alt_dev.o)
 .debug_aranges
                0x000003c8       0x20 ../Evo_Synth_bsp//libucosii_bsp.a(alt_fstat.o)
 .debug_aranges
                0x000003e8       0x20 ../Evo_Synth_bsp//libucosii_bsp.a(alt_isatty.o)
 .debug_aranges
                0x00000408       0x20 ../Evo_Synth_bsp//libucosii_bsp.a(alt_load.o)
 .debug_aranges
                0x00000428       0x20 ../Evo_Synth_bsp//libucosii_bsp.a(alt_lseek.o)
 .debug_aranges
                0x00000448       0x20 ../Evo_Synth_bsp//libucosii_bsp.a(alt_main.o)
 .debug_aranges
                0x00000468       0x20 ../Evo_Synth_bsp//libucosii_bsp.a(alt_read.o)
 .debug_aranges
                0x00000488       0x20 ../Evo_Synth_bsp//libucosii_bsp.a(alt_release_fd.o)
 .debug_aranges
                0x000004a8       0x20 ../Evo_Synth_bsp//libucosii_bsp.a(alt_sbrk.o)
 .debug_aranges
                0x000004c8       0x20 ../Evo_Synth_bsp//libucosii_bsp.a(alt_write.o)
 .debug_aranges
                0x000004e8       0x20 ../Evo_Synth_bsp//libucosii_bsp.a(alt_env_lock.o)
 .debug_aranges
                0x00000508       0x20 ../Evo_Synth_bsp//libucosii_bsp.a(alt_malloc_lock.o)
 .debug_aranges
                0x00000528       0x20 ../Evo_Synth_bsp//libucosii_bsp.a(os_core.o)
 .debug_aranges
                0x00000548       0x20 ../Evo_Synth_bsp//libucosii_bsp.a(os_dbg.o)
 .debug_aranges
                0x00000568       0x20 ../Evo_Synth_bsp//libucosii_bsp.a(os_flag.o)
 .debug_aranges
                0x00000588       0x20 ../Evo_Synth_bsp//libucosii_bsp.a(os_mem.o)
 .debug_aranges
                0x000005a8       0x20 ../Evo_Synth_bsp//libucosii_bsp.a(os_q.o)
 .debug_aranges
                0x000005c8       0x20 ../Evo_Synth_bsp//libucosii_bsp.a(os_sem.o)
 .debug_aranges
                0x000005e8       0x20 ../Evo_Synth_bsp//libucosii_bsp.a(os_task.o)
 .debug_aranges
                0x00000608       0x20 ../Evo_Synth_bsp//libucosii_bsp.a(os_time.o)
 .debug_aranges
                0x00000628       0x20 ../Evo_Synth_bsp//libucosii_bsp.a(alt_sys_init.o)
 .debug_aranges
                0x00000648       0x20 ../Evo_Synth_bsp//libucosii_bsp.a(altera_avalon_jtag_uart_fd.o)
 .debug_aranges
                0x00000668       0x20 ../Evo_Synth_bsp//libucosii_bsp.a(altera_avalon_jtag_uart_init.o)
 .debug_aranges
                0x00000688       0x20 ../Evo_Synth_bsp//libucosii_bsp.a(altera_avalon_jtag_uart_ioctl.o)
 .debug_aranges
                0x000006a8       0x20 ../Evo_Synth_bsp//libucosii_bsp.a(altera_avalon_jtag_uart_read.o)
 .debug_aranges
                0x000006c8       0x20 ../Evo_Synth_bsp//libucosii_bsp.a(altera_avalon_jtag_uart_write.o)
 .debug_aranges
                0x000006e8       0x20 ../Evo_Synth_bsp//libucosii_bsp.a(altera_avalon_timer_sc.o)
 .debug_aranges
                0x00000708       0x20 ../Evo_Synth_bsp//libucosii_bsp.a(altera_up_avalon_audio_and_video_config.o)
 .debug_aranges
                0x00000728       0x20 ../Evo_Synth_bsp//libucosii_bsp.a(alt_alarm_start.o)
 .debug_aranges
                0x00000748       0x20 ../Evo_Synth_bsp//libucosii_bsp.a(alt_dcache_flush_all.o)
 .debug_aranges
                0x00000768       0x20 ../Evo_Synth_bsp//libucosii_bsp.a(alt_dev_llist_insert.o)
 .debug_aranges
                0x00000788       0x20 ../Evo_Synth_bsp//libucosii_bsp.a(alt_do_ctors.o)
 .debug_aranges
                0x000007a8       0x20 ../Evo_Synth_bsp//libucosii_bsp.a(alt_do_dtors.o)
 .debug_aranges
                0x000007c8       0x20 ../Evo_Synth_bsp//libucosii_bsp.a(alt_find_dev.o)
 .debug_aranges
                0x000007e8       0x20 ../Evo_Synth_bsp//libucosii_bsp.a(alt_icache_flush_all.o)
 .debug_aranges
                0x00000808       0x20 ../Evo_Synth_bsp//libucosii_bsp.a(alt_iic.o)
 .debug_aranges
                0x00000828       0x20 ../Evo_Synth_bsp//libucosii_bsp.a(alt_iic_isr_register.o)
 .debug_aranges
                0x00000848       0x20 ../Evo_Synth_bsp//libucosii_bsp.a(alt_io_redirect.o)
 .debug_aranges
                0x00000868       0x30 ../Evo_Synth_bsp//libucosii_bsp.a(alt_irq_entry.o)
 .debug_aranges
                0x00000898       0x28 ../Evo_Synth_bsp//libucosii_bsp.a(alt_irq_handler.o)
 .debug_aranges
                0x000008c0       0x20 ../Evo_Synth_bsp//libucosii_bsp.a(alt_open.o)
 .debug_aranges
                0x000008e0       0x20 ../Evo_Synth_bsp//libucosii_bsp.a(alt_tick.o)
 .debug_aranges
                0x00000900       0x20 ../Evo_Synth_bsp//libucosii_bsp.a(altera_nios2_qsys_irq.o)
 .debug_aranges
                0x00000920       0x20 ../Evo_Synth_bsp//libucosii_bsp.a(os_cpu_a.o)
 .debug_aranges
                0x00000940       0x20 ../Evo_Synth_bsp//libucosii_bsp.a(os_cpu_c.o)
 .debug_aranges
                0x00000960       0x38 ../Evo_Synth_bsp//libucosii_bsp.a(alt_exception_entry.o)
 .debug_aranges
                0x00000998       0x20 ../Evo_Synth_bsp//libucosii_bsp.a(alt_find_file.o)
 .debug_aranges
                0x000009b8       0x20 ../Evo_Synth_bsp//libucosii_bsp.a(alt_get_fd.o)
 .debug_aranges
                0x000009d8       0x20 /OPT/altera/12.1/tools/nios2eds/bin/gnu/H-i686-pc-linux-gnu/bin/../lib/gcc/nios2-elf/4.1.2/../../../../nios2-elf/lib/mno-hw-mul/libc.a(lib_a-atexit.o)
 .debug_aranges
                0x000009f8       0x20 /OPT/altera/12.1/tools/nios2eds/bin/gnu/H-i686-pc-linux-gnu/bin/../lib/gcc/nios2-elf/4.1.2/../../../../nios2-elf/lib/mno-hw-mul/libc.a(lib_a-exit.o)
 .debug_aranges
                0x00000a18       0x20 /OPT/altera/12.1/tools/nios2eds/bin/gnu/H-i686-pc-linux-gnu/bin/../lib/gcc/nios2-elf/4.1.2/../../../../nios2-elf/lib/mno-hw-mul/libc.a(lib_a-memcmp.o)
 .debug_aranges
                0x00000a38       0x20 /OPT/altera/12.1/tools/nios2eds/bin/gnu/H-i686-pc-linux-gnu/bin/../lib/gcc/nios2-elf/4.1.2/../../../../nios2-elf/lib/mno-hw-mul/libc.a(lib_a-__atexit.o)
 .debug_aranges
                0x00000a58       0x20 /OPT/altera/12.1/tools/nios2eds/bin/gnu/H-i686-pc-linux-gnu/bin/../lib/gcc/nios2-elf/4.1.2/../../../../nios2-elf/lib/mno-hw-mul/libc.a(lib_a-__call_atexit.o)
 .debug_aranges
                0x00000a78       0x20 ../Evo_Synth_bsp//libucosii_bsp.a(alt_exit.o)

.debug_pubnames
                0x00000000     0x1d1e
 *(.debug_pubnames)
 .debug_pubnames
                0x00000000       0x47 obj/default/hello_ucosii.o
 .debug_pubnames
                0x00000047       0x48 /OPT/altera/12.1/tools/nios2eds/bin/gnu/H-i686-pc-linux-gnu/bin/../lib/gcc/nios2-elf/4.1.2/mno-hw-mul/libgcc.a(lib2-divmod.o)
 .debug_pubnames
                0x0000008f       0x1f /OPT/altera/12.1/tools/nios2eds/bin/gnu/H-i686-pc-linux-gnu/bin/../lib/gcc/nios2-elf/4.1.2/mno-hw-mul/libgcc.a(lib2-mul.o)
 .debug_pubnames
                0x000000ae       0x27 /OPT/altera/12.1/tools/nios2eds/bin/gnu/H-i686-pc-linux-gnu/bin/../lib/gcc/nios2-elf/4.1.2/../../../../nios2-elf/lib/mno-hw-mul/libc.a(lib_a-puts.o)
 .debug_pubnames
                0x000000d5       0x1d /OPT/altera/12.1/tools/nios2eds/bin/gnu/H-i686-pc-linux-gnu/bin/../lib/gcc/nios2-elf/4.1.2/../../../../nios2-elf/lib/mno-hw-mul/libc.a(lib_a-strlen.o)
 .debug_pubnames
                0x000000f2       0x23 /OPT/altera/12.1/tools/nios2eds/bin/gnu/H-i686-pc-linux-gnu/bin/../lib/gcc/nios2-elf/4.1.2/../../../../nios2-elf/lib/mno-hw-mul/libc.a(lib_a-fvwrite.o)
 .debug_pubnames
                0x00000115       0x39 /OPT/altera/12.1/tools/nios2eds/bin/gnu/H-i686-pc-linux-gnu/bin/../lib/gcc/nios2-elf/4.1.2/../../../../nios2-elf/lib/mno-hw-mul/libc.a(lib_a-impure.o)
 .debug_pubnames
                0x0000014e       0xce /OPT/altera/12.1/tools/nios2eds/bin/gnu/H-i686-pc-linux-gnu/bin/../lib/gcc/nios2-elf/4.1.2/../../../../nios2-elf/lib/mno-hw-mul/libc.a(lib_a-mallocr.o)
 .debug_pubnames
                0x0000021c       0x1d /OPT/altera/12.1/tools/nios2eds/bin/gnu/H-i686-pc-linux-gnu/bin/../lib/gcc/nios2-elf/4.1.2/../../../../nios2-elf/lib/mno-hw-mul/libc.a(lib_a-memchr.o)
 .debug_pubnames
                0x00000239       0x1d /OPT/altera/12.1/tools/nios2eds/bin/gnu/H-i686-pc-linux-gnu/bin/../lib/gcc/nios2-elf/4.1.2/../../../../nios2-elf/lib/mno-hw-mul/libc.a(lib_a-memcpy.o)
 .debug_pubnames
                0x00000256       0x1e /OPT/altera/12.1/tools/nios2eds/bin/gnu/H-i686-pc-linux-gnu/bin/../lib/gcc/nios2-elf/4.1.2/../../../../nios2-elf/lib/mno-hw-mul/libc.a(lib_a-memmove.o)
 .debug_pubnames
                0x00000274       0x21 /OPT/altera/12.1/tools/nios2eds/bin/gnu/H-i686-pc-linux-gnu/bin/../lib/gcc/nios2-elf/4.1.2/../../../../nios2-elf/lib/mno-hw-mul/libc.a(lib_a-reallocr.o)
 .debug_pubnames
                0x00000295       0x1e /OPT/altera/12.1/tools/nios2eds/bin/gnu/H-i686-pc-linux-gnu/bin/../lib/gcc/nios2-elf/4.1.2/../../../../nios2-elf/lib/mno-hw-mul/libc.a(lib_a-sbrkr.o)
 .debug_pubnames
                0x000002b3       0x22 /OPT/altera/12.1/tools/nios2eds/bin/gnu/H-i686-pc-linux-gnu/bin/../lib/gcc/nios2-elf/4.1.2/../../../../nios2-elf/lib/mno-hw-mul/libc.a(lib_a-wsetup.o)
 .debug_pubnames
                0x000002d5       0x2b /OPT/altera/12.1/tools/nios2eds/bin/gnu/H-i686-pc-linux-gnu/bin/../lib/gcc/nios2-elf/4.1.2/../../../../nios2-elf/lib/mno-hw-mul/libc.a(lib_a-fflush.o)
 .debug_pubnames
                0x00000300       0xdb /OPT/altera/12.1/tools/nios2eds/bin/gnu/H-i686-pc-linux-gnu/bin/../lib/gcc/nios2-elf/4.1.2/../../../../nios2-elf/lib/mno-hw-mul/libc.a(lib_a-findfp.o)
 .debug_pubnames
                0x000003db       0x31 /OPT/altera/12.1/tools/nios2eds/bin/gnu/H-i686-pc-linux-gnu/bin/../lib/gcc/nios2-elf/4.1.2/../../../../nios2-elf/lib/mno-hw-mul/libc.a(lib_a-freer.o)
 .debug_pubnames
                0x0000040c       0x2e /OPT/altera/12.1/tools/nios2eds/bin/gnu/H-i686-pc-linux-gnu/bin/../lib/gcc/nios2-elf/4.1.2/../../../../nios2-elf/lib/mno-hw-mul/libc.a(lib_a-fwalk.o)
 .debug_pubnames
                0x0000043a       0x1c /OPT/altera/12.1/tools/nios2eds/bin/gnu/H-i686-pc-linux-gnu/bin/../lib/gcc/nios2-elf/4.1.2/../../../../nios2-elf/lib/mno-hw-mul/libc.a(lib_a-int_errno.o)
 .debug_pubnames
                0x00000456       0x23 /OPT/altera/12.1/tools/nios2eds/bin/gnu/H-i686-pc-linux-gnu/bin/../lib/gcc/nios2-elf/4.1.2/../../../../nios2-elf/lib/mno-hw-mul/libc.a(lib_a-makebuf.o)
 .debug_pubnames
                0x00000479       0x1d /OPT/altera/12.1/tools/nios2eds/bin/gnu/H-i686-pc-linux-gnu/bin/../lib/gcc/nios2-elf/4.1.2/../../../../nios2-elf/lib/mno-hw-mul/libc.a(lib_a-memset.o)
 .debug_pubnames
                0x00000496       0x44 /OPT/altera/12.1/tools/nios2eds/bin/gnu/H-i686-pc-linux-gnu/bin/../lib/gcc/nios2-elf/4.1.2/../../../../nios2-elf/lib/mno-hw-mul/libc.a(lib_a-stdio.o)
 .debug_pubnames
                0x000004da       0x1f /OPT/altera/12.1/tools/nios2eds/bin/gnu/H-i686-pc-linux-gnu/bin/../lib/gcc/nios2-elf/4.1.2/../../../../nios2-elf/lib/mno-hw-mul/libc.a(lib_a-writer.o)
 .debug_pubnames
                0x000004f9       0x1f /OPT/altera/12.1/tools/nios2eds/bin/gnu/H-i686-pc-linux-gnu/bin/../lib/gcc/nios2-elf/4.1.2/../../../../nios2-elf/lib/mno-hw-mul/libc.a(lib_a-closer.o)
 .debug_pubnames
                0x00000518       0x2b /OPT/altera/12.1/tools/nios2eds/bin/gnu/H-i686-pc-linux-gnu/bin/../lib/gcc/nios2-elf/4.1.2/../../../../nios2-elf/lib/mno-hw-mul/libc.a(lib_a-fclose.o)
 .debug_pubnames
                0x00000543       0x1f /OPT/altera/12.1/tools/nios2eds/bin/gnu/H-i686-pc-linux-gnu/bin/../lib/gcc/nios2-elf/4.1.2/../../../../nios2-elf/lib/mno-hw-mul/libc.a(lib_a-fstatr.o)
 .debug_pubnames
                0x00000562       0x20 /OPT/altera/12.1/tools/nios2eds/bin/gnu/H-i686-pc-linux-gnu/bin/../lib/gcc/nios2-elf/4.1.2/../../../../nios2-elf/lib/mno-hw-mul/libc.a(lib_a-isattyr.o)
 .debug_pubnames
                0x00000582       0x1f /OPT/altera/12.1/tools/nios2eds/bin/gnu/H-i686-pc-linux-gnu/bin/../lib/gcc/nios2-elf/4.1.2/../../../../nios2-elf/lib/mno-hw-mul/libc.a(lib_a-lseekr.o)
 .debug_pubnames
                0x000005a1       0x1e /OPT/altera/12.1/tools/nios2eds/bin/gnu/H-i686-pc-linux-gnu/bin/../lib/gcc/nios2-elf/4.1.2/../../../../nios2-elf/lib/mno-hw-mul/libc.a(lib_a-readr.o)
 .debug_pubnames
                0x000005bf       0x1c ../Evo_Synth_bsp//libucosii_bsp.a(alt_close.o)
 .debug_pubnames
                0x000005db       0x78 ../Evo_Synth_bsp//libucosii_bsp.a(alt_dev.o)
 .debug_pubnames
                0x00000653       0x20 ../Evo_Synth_bsp//libucosii_bsp.a(alt_errno.o)
 .debug_pubnames
                0x00000673       0x1c ../Evo_Synth_bsp//libucosii_bsp.a(alt_fstat.o)
 .debug_pubnames
                0x0000068f       0x1d ../Evo_Synth_bsp//libucosii_bsp.a(alt_isatty.o)
 .debug_pubnames
                0x000006ac       0x1f ../Evo_Synth_bsp//libucosii_bsp.a(alt_load.o)
 .debug_pubnames
                0x000006cb       0x1c ../Evo_Synth_bsp//libucosii_bsp.a(alt_lseek.o)
 .debug_pubnames
                0x000006e7       0x46 ../Evo_Synth_bsp//libucosii_bsp.a(alt_main.o)
 .debug_pubnames
                0x0000072d       0x1b ../Evo_Synth_bsp//libucosii_bsp.a(alt_read.o)
 .debug_pubnames
                0x00000748       0x25 ../Evo_Synth_bsp//libucosii_bsp.a(alt_release_fd.o)
 .debug_pubnames
                0x0000076d       0x1b ../Evo_Synth_bsp//libucosii_bsp.a(alt_sbrk.o)
 .debug_pubnames
                0x00000788       0x1c ../Evo_Synth_bsp//libucosii_bsp.a(alt_write.o)
 .debug_pubnames
                0x000007a4       0x41 ../Evo_Synth_bsp//libucosii_bsp.a(alt_env_lock.o)
 .debug_pubnames
                0x000007e5       0x48 ../Evo_Synth_bsp//libucosii_bsp.a(alt_malloc_lock.o)
 .debug_pubnames
                0x0000082d      0x3f8 ../Evo_Synth_bsp//libucosii_bsp.a(os_core.o)
 .debug_pubnames
                0x00000c25      0x3c5 ../Evo_Synth_bsp//libucosii_bsp.a(os_dbg.o)
 .debug_pubnames
                0x00000fea       0xd0 ../Evo_Synth_bsp//libucosii_bsp.a(os_flag.o)
 .debug_pubnames
                0x000010ba       0x7c ../Evo_Synth_bsp//libucosii_bsp.a(os_mem.o)
 .debug_pubnames
                0x00001136       0xa9 ../Evo_Synth_bsp//libucosii_bsp.a(os_q.o)
 .debug_pubnames
                0x000011df       0x8a ../Evo_Synth_bsp//libucosii_bsp.a(os_sem.o)
 .debug_pubnames
                0x00001269       0xe5 ../Evo_Synth_bsp//libucosii_bsp.a(os_task.o)
 .debug_pubnames
                0x0000134e       0x62 ../Evo_Synth_bsp//libucosii_bsp.a(os_time.o)
 .debug_pubnames
                0x000013b0       0x34 ../Evo_Synth_bsp//libucosii_bsp.a(alt_sys_init.o)
 .debug_pubnames
                0x000013e4       0xa5 ../Evo_Synth_bsp//libucosii_bsp.a(altera_avalon_jtag_uart_fd.o)
 .debug_pubnames
                0x00001489       0x55 ../Evo_Synth_bsp//libucosii_bsp.a(altera_avalon_jtag_uart_init.o)
 .debug_pubnames
                0x000014de       0x34 ../Evo_Synth_bsp//libucosii_bsp.a(altera_avalon_jtag_uart_ioctl.o)
 .debug_pubnames
                0x00001512       0x33 ../Evo_Synth_bsp//libucosii_bsp.a(altera_avalon_jtag_uart_read.o)
 .debug_pubnames
                0x00001545       0x34 ../Evo_Synth_bsp//libucosii_bsp.a(altera_avalon_jtag_uart_write.o)
 .debug_pubnames
                0x00001579       0x2f ../Evo_Synth_bsp//libucosii_bsp.a(altera_avalon_timer_sc.o)
 .debug_pubnames
                0x000015a8      0x2ab ../Evo_Synth_bsp//libucosii_bsp.a(altera_up_avalon_audio_and_video_config.o)
 .debug_pubnames
                0x00001853       0x26 ../Evo_Synth_bsp//libucosii_bsp.a(alt_alarm_start.o)
 .debug_pubnames
                0x00001879       0x2b ../Evo_Synth_bsp//libucosii_bsp.a(alt_dcache_flush_all.o)
 .debug_pubnames
                0x000018a4       0x2b ../Evo_Synth_bsp//libucosii_bsp.a(alt_dev_llist_insert.o)
 .debug_pubnames
                0x000018cf       0x20 ../Evo_Synth_bsp//libucosii_bsp.a(alt_do_ctors.o)
 .debug_pubnames
                0x000018ef       0x20 ../Evo_Synth_bsp//libucosii_bsp.a(alt_do_dtors.o)
 .debug_pubnames
                0x0000190f       0x23 ../Evo_Synth_bsp//libucosii_bsp.a(alt_find_dev.o)
 .debug_pubnames
                0x00001932       0x2b ../Evo_Synth_bsp//libucosii_bsp.a(alt_icache_flush_all.o)
 .debug_pubnames
                0x0000195d       0x6e ../Evo_Synth_bsp//libucosii_bsp.a(alt_iic.o)
 .debug_pubnames
                0x000019cb       0x2b ../Evo_Synth_bsp//libucosii_bsp.a(alt_iic_isr_register.o)
 .debug_pubnames
                0x000019f6       0x26 ../Evo_Synth_bsp//libucosii_bsp.a(alt_io_redirect.o)
 .debug_pubnames
                0x00001a1c       0x32 ../Evo_Synth_bsp//libucosii_bsp.a(alt_irq_handler.o)
 .debug_pubnames
                0x00001a4e       0x3b ../Evo_Synth_bsp//libucosii_bsp.a(alt_irq_vars.o)
 .debug_pubnames
                0x00001a89       0x1b ../Evo_Synth_bsp//libucosii_bsp.a(alt_open.o)
 .debug_pubnames
                0x00001aa4       0x68 ../Evo_Synth_bsp//libucosii_bsp.a(alt_tick.o)
 .debug_pubnames
                0x00001b0c       0x31 ../Evo_Synth_bsp//libucosii_bsp.a(altera_nios2_qsys_irq.o)
 .debug_pubnames
                0x00001b3d       0xcd ../Evo_Synth_bsp//libucosii_bsp.a(os_cpu_c.o)
 .debug_pubnames
                0x00001c0a       0x24 ../Evo_Synth_bsp//libucosii_bsp.a(alt_find_file.o)
 .debug_pubnames
                0x00001c2e       0x21 ../Evo_Synth_bsp//libucosii_bsp.a(alt_get_fd.o)
 .debug_pubnames
                0x00001c4f       0x2a /OPT/altera/12.1/tools/nios2eds/bin/gnu/H-i686-pc-linux-gnu/bin/../lib/gcc/nios2-elf/4.1.2/../../../../nios2-elf/lib/mno-hw-mul/libc.a(lib_a-atexit.o)
 .debug_pubnames
                0x00001c79       0x1b /OPT/altera/12.1/tools/nios2eds/bin/gnu/H-i686-pc-linux-gnu/bin/../lib/gcc/nios2-elf/4.1.2/../../../../nios2-elf/lib/mno-hw-mul/libc.a(lib_a-exit.o)
 .debug_pubnames
                0x00001c94       0x1d /OPT/altera/12.1/tools/nios2eds/bin/gnu/H-i686-pc-linux-gnu/bin/../lib/gcc/nios2-elf/4.1.2/../../../../nios2-elf/lib/mno-hw-mul/libc.a(lib_a-memcmp.o)
 .debug_pubnames
                0x00001cb1       0x2a /OPT/altera/12.1/tools/nios2eds/bin/gnu/H-i686-pc-linux-gnu/bin/../lib/gcc/nios2-elf/4.1.2/../../../../nios2-elf/lib/mno-hw-mul/libc.a(lib_a-__atexit.o)
 .debug_pubnames
                0x00001cdb       0x27 /OPT/altera/12.1/tools/nios2eds/bin/gnu/H-i686-pc-linux-gnu/bin/../lib/gcc/nios2-elf/4.1.2/../../../../nios2-elf/lib/mno-hw-mul/libc.a(lib_a-__call_atexit.o)
 .debug_pubnames
                0x00001d02       0x1c ../Evo_Synth_bsp//libucosii_bsp.a(alt_exit.o)

.debug_info     0x00000000    0x277fa
 *(.debug_info .gnu.linkonce.wi.*)
 .debug_info    0x00000000       0x91 ../Evo_Synth_bsp//obj/HAL/src/crt0.o
 .debug_info    0x00000091      0x6e1 obj/default/hello_ucosii.o
 .debug_info    0x00000772      0x21c /OPT/altera/12.1/tools/nios2eds/bin/gnu/H-i686-pc-linux-gnu/bin/../lib/gcc/nios2-elf/4.1.2/mno-hw-mul/libgcc.a(lib2-divmod.o)
 .debug_info    0x0000098e       0xf3 /OPT/altera/12.1/tools/nios2eds/bin/gnu/H-i686-pc-linux-gnu/bin/../lib/gcc/nios2-elf/4.1.2/mno-hw-mul/libgcc.a(lib2-mul.o)
 .debug_info    0x00000a81      0xa25 /OPT/altera/12.1/tools/nios2eds/bin/gnu/H-i686-pc-linux-gnu/bin/../lib/gcc/nios2-elf/4.1.2/../../../../nios2-elf/lib/mno-hw-mul/libc.a(lib_a-puts.o)
 .debug_info    0x000014a6       0xdb /OPT/altera/12.1/tools/nios2eds/bin/gnu/H-i686-pc-linux-gnu/bin/../lib/gcc/nios2-elf/4.1.2/../../../../nios2-elf/lib/mno-hw-mul/libc.a(lib_a-strlen.o)
 .debug_info    0x00001581      0xa88 /OPT/altera/12.1/tools/nios2eds/bin/gnu/H-i686-pc-linux-gnu/bin/../lib/gcc/nios2-elf/4.1.2/../../../../nios2-elf/lib/mno-hw-mul/libc.a(lib_a-fvwrite.o)
 .debug_info    0x00002009      0x93d /OPT/altera/12.1/tools/nios2eds/bin/gnu/H-i686-pc-linux-gnu/bin/../lib/gcc/nios2-elf/4.1.2/../../../../nios2-elf/lib/mno-hw-mul/libc.a(lib_a-impure.o)
 .debug_info    0x00002946      0xcd0 /OPT/altera/12.1/tools/nios2eds/bin/gnu/H-i686-pc-linux-gnu/bin/../lib/gcc/nios2-elf/4.1.2/../../../../nios2-elf/lib/mno-hw-mul/libc.a(lib_a-mallocr.o)
 .debug_info    0x00003616      0x138 /OPT/altera/12.1/tools/nios2eds/bin/gnu/H-i686-pc-linux-gnu/bin/../lib/gcc/nios2-elf/4.1.2/../../../../nios2-elf/lib/mno-hw-mul/libc.a(lib_a-memchr.o)
 .debug_info    0x0000374e      0x106 /OPT/altera/12.1/tools/nios2eds/bin/gnu/H-i686-pc-linux-gnu/bin/../lib/gcc/nios2-elf/4.1.2/../../../../nios2-elf/lib/mno-hw-mul/libc.a(lib_a-memcpy.o)
 .debug_info    0x00003854      0x13e /OPT/altera/12.1/tools/nios2eds/bin/gnu/H-i686-pc-linux-gnu/bin/../lib/gcc/nios2-elf/4.1.2/../../../../nios2-elf/lib/mno-hw-mul/libc.a(lib_a-memmove.o)
 .debug_info    0x00003992      0xbd7 /OPT/altera/12.1/tools/nios2eds/bin/gnu/H-i686-pc-linux-gnu/bin/../lib/gcc/nios2-elf/4.1.2/../../../../nios2-elf/lib/mno-hw-mul/libc.a(lib_a-reallocr.o)
 .debug_info    0x00004569      0x962 /OPT/altera/12.1/tools/nios2eds/bin/gnu/H-i686-pc-linux-gnu/bin/../lib/gcc/nios2-elf/4.1.2/../../../../nios2-elf/lib/mno-hw-mul/libc.a(lib_a-sbrkr.o)
 .debug_info    0x00004ecb      0x95d /OPT/altera/12.1/tools/nios2eds/bin/gnu/H-i686-pc-linux-gnu/bin/../lib/gcc/nios2-elf/4.1.2/../../../../nios2-elf/lib/mno-hw-mul/libc.a(lib_a-wsetup.o)
 .debug_info    0x00005828      0x9fe /OPT/altera/12.1/tools/nios2eds/bin/gnu/H-i686-pc-linux-gnu/bin/../lib/gcc/nios2-elf/4.1.2/../../../../nios2-elf/lib/mno-hw-mul/libc.a(lib_a-fflush.o)
 .debug_info    0x00006226      0xb72 /OPT/altera/12.1/tools/nios2eds/bin/gnu/H-i686-pc-linux-gnu/bin/../lib/gcc/nios2-elf/4.1.2/../../../../nios2-elf/lib/mno-hw-mul/libc.a(lib_a-findfp.o)
 .debug_info    0x00006d98      0xbc9 /OPT/altera/12.1/tools/nios2eds/bin/gnu/H-i686-pc-linux-gnu/bin/../lib/gcc/nios2-elf/4.1.2/../../../../nios2-elf/lib/mno-hw-mul/libc.a(lib_a-freer.o)
 .debug_info    0x00007961      0xaed /OPT/altera/12.1/tools/nios2eds/bin/gnu/H-i686-pc-linux-gnu/bin/../lib/gcc/nios2-elf/4.1.2/../../../../nios2-elf/lib/mno-hw-mul/libc.a(lib_a-fwalk.o)
 .debug_info    0x0000844e       0x8c /OPT/altera/12.1/tools/nios2eds/bin/gnu/H-i686-pc-linux-gnu/bin/../lib/gcc/nios2-elf/4.1.2/../../../../nios2-elf/lib/mno-hw-mul/libc.a(lib_a-int_errno.o)
 .debug_info    0x000084da      0xb1a /OPT/altera/12.1/tools/nios2eds/bin/gnu/H-i686-pc-linux-gnu/bin/../lib/gcc/nios2-elf/4.1.2/../../../../nios2-elf/lib/mno-hw-mul/libc.a(lib_a-makebuf.o)
 .debug_info    0x00008ff4      0x113 /OPT/altera/12.1/tools/nios2eds/bin/gnu/H-i686-pc-linux-gnu/bin/../lib/gcc/nios2-elf/4.1.2/../../../../nios2-elf/lib/mno-hw-mul/libc.a(lib_a-memset.o)
 .debug_info    0x00009107      0xaac /OPT/altera/12.1/tools/nios2eds/bin/gnu/H-i686-pc-linux-gnu/bin/../lib/gcc/nios2-elf/4.1.2/../../../../nios2-elf/lib/mno-hw-mul/libc.a(lib_a-stdio.o)
 .debug_info    0x00009bb3      0x993 /OPT/altera/12.1/tools/nios2eds/bin/gnu/H-i686-pc-linux-gnu/bin/../lib/gcc/nios2-elf/4.1.2/../../../../nios2-elf/lib/mno-hw-mul/libc.a(lib_a-writer.o)
 .debug_info    0x0000a546      0x958 /OPT/altera/12.1/tools/nios2eds/bin/gnu/H-i686-pc-linux-gnu/bin/../lib/gcc/nios2-elf/4.1.2/../../../../nios2-elf/lib/mno-hw-mul/libc.a(lib_a-closer.o)
 .debug_info    0x0000ae9e      0x994 /OPT/altera/12.1/tools/nios2eds/bin/gnu/H-i686-pc-linux-gnu/bin/../lib/gcc/nios2-elf/4.1.2/../../../../nios2-elf/lib/mno-hw-mul/libc.a(lib_a-fclose.o)
 .debug_info    0x0000b832      0xafc /OPT/altera/12.1/tools/nios2eds/bin/gnu/H-i686-pc-linux-gnu/bin/../lib/gcc/nios2-elf/4.1.2/../../../../nios2-elf/lib/mno-hw-mul/libc.a(lib_a-fstatr.o)
 .debug_info    0x0000c32e      0x958 /OPT/altera/12.1/tools/nios2eds/bin/gnu/H-i686-pc-linux-gnu/bin/../lib/gcc/nios2-elf/4.1.2/../../../../nios2-elf/lib/mno-hw-mul/libc.a(lib_a-isattyr.o)
 .debug_info    0x0000cc86      0x981 /OPT/altera/12.1/tools/nios2eds/bin/gnu/H-i686-pc-linux-gnu/bin/../lib/gcc/nios2-elf/4.1.2/../../../../nios2-elf/lib/mno-hw-mul/libc.a(lib_a-lseekr.o)
 .debug_info    0x0000d607      0x98c /OPT/altera/12.1/tools/nios2eds/bin/gnu/H-i686-pc-linux-gnu/bin/../lib/gcc/nios2-elf/4.1.2/../../../../nios2-elf/lib/mno-hw-mul/libc.a(lib_a-readr.o)
 .debug_info    0x0000df93      0x4d1 ../Evo_Synth_bsp//libucosii_bsp.a(alt_close.o)
 .debug_info    0x0000e464      0x7f3 ../Evo_Synth_bsp//libucosii_bsp.a(alt_dev.o)
 .debug_info    0x0000ec57      0x182 ../Evo_Synth_bsp//libucosii_bsp.a(alt_errno.o)
 .debug_info    0x0000edd9      0x6ca ../Evo_Synth_bsp//libucosii_bsp.a(alt_fstat.o)
 .debug_info    0x0000f4a3      0x6d0 ../Evo_Synth_bsp//libucosii_bsp.a(alt_isatty.o)
 .debug_info    0x0000fb73      0x2ab ../Evo_Synth_bsp//libucosii_bsp.a(alt_load.o)
 .debug_info    0x0000fe1e      0x504 ../Evo_Synth_bsp//libucosii_bsp.a(alt_lseek.o)
 .debug_info    0x00010322      0x3f3 ../Evo_Synth_bsp//libucosii_bsp.a(alt_main.o)
 .debug_info    0x00010715      0x6f4 ../Evo_Synth_bsp//libucosii_bsp.a(alt_read.o)
 .debug_info    0x00010e09      0x465 ../Evo_Synth_bsp//libucosii_bsp.a(alt_release_fd.o)
 .debug_info    0x0001126e      0x2cd ../Evo_Synth_bsp//libucosii_bsp.a(alt_sbrk.o)
 .debug_info    0x0001153b      0x6fd ../Evo_Synth_bsp//libucosii_bsp.a(alt_write.o)
 .debug_info    0x00011c38     0x11e9 ../Evo_Synth_bsp//libucosii_bsp.a(alt_env_lock.o)
 .debug_info    0x00012e21     0x1345 ../Evo_Synth_bsp//libucosii_bsp.a(alt_malloc_lock.o)
 .debug_info    0x00014166     0x1bff ../Evo_Synth_bsp//libucosii_bsp.a(os_core.o)
 .debug_info    0x00015d65     0x1144 ../Evo_Synth_bsp//libucosii_bsp.a(os_dbg.o)
 .debug_info    0x00016ea9     0x125a ../Evo_Synth_bsp//libucosii_bsp.a(os_flag.o)
 .debug_info    0x00018103      0x824 ../Evo_Synth_bsp//libucosii_bsp.a(os_mem.o)
 .debug_info    0x00018927     0x1094 ../Evo_Synth_bsp//libucosii_bsp.a(os_q.o)
 .debug_info    0x000199bb      0xcfc ../Evo_Synth_bsp//libucosii_bsp.a(os_sem.o)
 .debug_info    0x0001a6b7     0x1372 ../Evo_Synth_bsp//libucosii_bsp.a(os_task.o)
 .debug_info    0x0001ba29      0x9f6 ../Evo_Synth_bsp//libucosii_bsp.a(os_time.o)
 .debug_info    0x0001c41f      0xa6b ../Evo_Synth_bsp//libucosii_bsp.a(alt_sys_init.o)
 .debug_info    0x0001ce8a      0x9e8 ../Evo_Synth_bsp//libucosii_bsp.a(altera_avalon_jtag_uart_fd.o)
 .debug_info    0x0001d872      0x966 ../Evo_Synth_bsp//libucosii_bsp.a(altera_avalon_jtag_uart_init.o)
 .debug_info    0x0001e1d8      0x652 ../Evo_Synth_bsp//libucosii_bsp.a(altera_avalon_jtag_uart_ioctl.o)
 .debug_info    0x0001e82a      0x80e ../Evo_Synth_bsp//libucosii_bsp.a(altera_avalon_jtag_uart_read.o)
 .debug_info    0x0001f038      0x805 ../Evo_Synth_bsp//libucosii_bsp.a(altera_avalon_jtag_uart_write.o)
 .debug_info    0x0001f83d      0x3a1 ../Evo_Synth_bsp//libucosii_bsp.a(altera_avalon_timer_sc.o)
 .debug_info    0x0001fbde      0xc20 ../Evo_Synth_bsp//libucosii_bsp.a(altera_up_avalon_audio_and_video_config.o)
 .debug_info    0x000207fe      0x458 ../Evo_Synth_bsp//libucosii_bsp.a(alt_alarm_start.o)
 .debug_info    0x00020c56      0x172 ../Evo_Synth_bsp//libucosii_bsp.a(alt_dcache_flush_all.o)
 .debug_info    0x00020dc8      0x2d5 ../Evo_Synth_bsp//libucosii_bsp.a(alt_dev_llist_insert.o)
 .debug_info    0x0002109d      0x12d ../Evo_Synth_bsp//libucosii_bsp.a(alt_do_ctors.o)
 .debug_info    0x000211ca      0x12c ../Evo_Synth_bsp//libucosii_bsp.a(alt_do_dtors.o)
 .debug_info    0x000212f6      0x482 ../Evo_Synth_bsp//libucosii_bsp.a(alt_find_dev.o)
 .debug_info    0x00021778      0x172 ../Evo_Synth_bsp//libucosii_bsp.a(alt_icache_flush_all.o)
 .debug_info    0x000218ea      0x4a9 ../Evo_Synth_bsp//libucosii_bsp.a(alt_iic.o)
 .debug_info    0x00021d93      0x32a ../Evo_Synth_bsp//libucosii_bsp.a(alt_iic_isr_register.o)
 .debug_info    0x000220bd      0x6ff ../Evo_Synth_bsp//libucosii_bsp.a(alt_io_redirect.o)
 .debug_info    0x000227bc       0x9a ../Evo_Synth_bsp//libucosii_bsp.a(alt_irq_entry.o)
 .debug_info    0x00022856      0x2d0 ../Evo_Synth_bsp//libucosii_bsp.a(alt_irq_handler.o)
 .debug_info    0x00022b26      0x17d ../Evo_Synth_bsp//libucosii_bsp.a(alt_irq_vars.o)
 .debug_info    0x00022ca3      0x580 ../Evo_Synth_bsp//libucosii_bsp.a(alt_open.o)
 .debug_info    0x00023223      0x427 ../Evo_Synth_bsp//libucosii_bsp.a(alt_tick.o)
 .debug_info    0x0002364a      0x179 ../Evo_Synth_bsp//libucosii_bsp.a(altera_nios2_qsys_irq.o)
 .debug_info    0x000237c3       0x99 ../Evo_Synth_bsp//libucosii_bsp.a(os_cpu_a.o)
 .debug_info    0x0002385c     0x12e9 ../Evo_Synth_bsp//libucosii_bsp.a(os_cpu_c.o)
 .debug_info    0x00024b45       0xa0 ../Evo_Synth_bsp//libucosii_bsp.a(alt_exception_entry.o)
 .debug_info    0x00024be5      0x489 ../Evo_Synth_bsp//libucosii_bsp.a(alt_find_file.o)
 .debug_info    0x0002506e      0x61b ../Evo_Synth_bsp//libucosii_bsp.a(alt_get_fd.o)
 .debug_info    0x00025689      0x181 /OPT/altera/12.1/tools/nios2eds/bin/gnu/H-i686-pc-linux-gnu/bin/../lib/gcc/nios2-elf/4.1.2/../../../../nios2-elf/lib/mno-hw-mul/libc.a(lib_a-atexit.o)
 .debug_info    0x0002580a      0x93f /OPT/altera/12.1/tools/nios2eds/bin/gnu/H-i686-pc-linux-gnu/bin/../lib/gcc/nios2-elf/4.1.2/../../../../nios2-elf/lib/mno-hw-mul/libc.a(lib_a-exit.o)
 .debug_info    0x00026149      0x115 /OPT/altera/12.1/tools/nios2eds/bin/gnu/H-i686-pc-linux-gnu/bin/../lib/gcc/nios2-elf/4.1.2/../../../../nios2-elf/lib/mno-hw-mul/libc.a(lib_a-memcmp.o)
 .debug_info    0x0002625e      0x99c /OPT/altera/12.1/tools/nios2eds/bin/gnu/H-i686-pc-linux-gnu/bin/../lib/gcc/nios2-elf/4.1.2/../../../../nios2-elf/lib/mno-hw-mul/libc.a(lib_a-__atexit.o)
 .debug_info    0x00026bfa      0x9e2 /OPT/altera/12.1/tools/nios2eds/bin/gnu/H-i686-pc-linux-gnu/bin/../lib/gcc/nios2-elf/4.1.2/../../../../nios2-elf/lib/mno-hw-mul/libc.a(lib_a-__call_atexit.o)
 .debug_info    0x000275dc      0x21e ../Evo_Synth_bsp//libucosii_bsp.a(alt_exit.o)

.debug_abbrev   0x00000000     0x6a8b
 *(.debug_abbrev)
 .debug_abbrev  0x00000000       0x12 ../Evo_Synth_bsp//obj/HAL/src/crt0.o
 .debug_abbrev  0x00000012      0x149 obj/default/hello_ucosii.o
 .debug_abbrev  0x0000015b       0xe0 /OPT/altera/12.1/tools/nios2eds/bin/gnu/H-i686-pc-linux-gnu/bin/../lib/gcc/nios2-elf/4.1.2/mno-hw-mul/libgcc.a(lib2-divmod.o)
 .debug_abbrev  0x0000023b       0x7b /OPT/altera/12.1/tools/nios2eds/bin/gnu/H-i686-pc-linux-gnu/bin/../lib/gcc/nios2-elf/4.1.2/mno-hw-mul/libgcc.a(lib2-mul.o)
 .debug_abbrev  0x000002b6      0x1ac /OPT/altera/12.1/tools/nios2eds/bin/gnu/H-i686-pc-linux-gnu/bin/../lib/gcc/nios2-elf/4.1.2/../../../../nios2-elf/lib/mno-hw-mul/libc.a(lib_a-puts.o)
 .debug_abbrev  0x00000462       0x8b /OPT/altera/12.1/tools/nios2eds/bin/gnu/H-i686-pc-linux-gnu/bin/../lib/gcc/nios2-elf/4.1.2/../../../../nios2-elf/lib/mno-hw-mul/libc.a(lib_a-strlen.o)
 .debug_abbrev  0x000004ed      0x1a3 /OPT/altera/12.1/tools/nios2eds/bin/gnu/H-i686-pc-linux-gnu/bin/../lib/gcc/nios2-elf/4.1.2/../../../../nios2-elf/lib/mno-hw-mul/libc.a(lib_a-fvwrite.o)
 .debug_abbrev  0x00000690      0x157 /OPT/altera/12.1/tools/nios2eds/bin/gnu/H-i686-pc-linux-gnu/bin/../lib/gcc/nios2-elf/4.1.2/../../../../nios2-elf/lib/mno-hw-mul/libc.a(lib_a-impure.o)
 .debug_abbrev  0x000007e7      0x216 /OPT/altera/12.1/tools/nios2eds/bin/gnu/H-i686-pc-linux-gnu/bin/../lib/gcc/nios2-elf/4.1.2/../../../../nios2-elf/lib/mno-hw-mul/libc.a(lib_a-mallocr.o)
 .debug_abbrev  0x000009fd       0xb5 /OPT/altera/12.1/tools/nios2eds/bin/gnu/H-i686-pc-linux-gnu/bin/../lib/gcc/nios2-elf/4.1.2/../../../../nios2-elf/lib/mno-hw-mul/libc.a(lib_a-memchr.o)
 .debug_abbrev  0x00000ab2       0xb5 /OPT/altera/12.1/tools/nios2eds/bin/gnu/H-i686-pc-linux-gnu/bin/../lib/gcc/nios2-elf/4.1.2/../../../../nios2-elf/lib/mno-hw-mul/libc.a(lib_a-memcpy.o)
 .debug_abbrev  0x00000b67       0xb5 /OPT/altera/12.1/tools/nios2eds/bin/gnu/H-i686-pc-linux-gnu/bin/../lib/gcc/nios2-elf/4.1.2/../../../../nios2-elf/lib/mno-hw-mul/libc.a(lib_a-memmove.o)
 .debug_abbrev  0x00000c1c      0x1c3 /OPT/altera/12.1/tools/nios2eds/bin/gnu/H-i686-pc-linux-gnu/bin/../lib/gcc/nios2-elf/4.1.2/../../../../nios2-elf/lib/mno-hw-mul/libc.a(lib_a-reallocr.o)
 .debug_abbrev  0x00000ddf      0x18c /OPT/altera/12.1/tools/nios2eds/bin/gnu/H-i686-pc-linux-gnu/bin/../lib/gcc/nios2-elf/4.1.2/../../../../nios2-elf/lib/mno-hw-mul/libc.a(lib_a-sbrkr.o)
 .debug_abbrev  0x00000f6b      0x170 /OPT/altera/12.1/tools/nios2eds/bin/gnu/H-i686-pc-linux-gnu/bin/../lib/gcc/nios2-elf/4.1.2/../../../../nios2-elf/lib/mno-hw-mul/libc.a(lib_a-wsetup.o)
 .debug_abbrev  0x000010db      0x1c6 /OPT/altera/12.1/tools/nios2eds/bin/gnu/H-i686-pc-linux-gnu/bin/../lib/gcc/nios2-elf/4.1.2/../../../../nios2-elf/lib/mno-hw-mul/libc.a(lib_a-fflush.o)
 .debug_abbrev  0x000012a1      0x24c /OPT/altera/12.1/tools/nios2eds/bin/gnu/H-i686-pc-linux-gnu/bin/../lib/gcc/nios2-elf/4.1.2/../../../../nios2-elf/lib/mno-hw-mul/libc.a(lib_a-findfp.o)
 .debug_abbrev  0x000014ed      0x1d9 /OPT/altera/12.1/tools/nios2eds/bin/gnu/H-i686-pc-linux-gnu/bin/../lib/gcc/nios2-elf/4.1.2/../../../../nios2-elf/lib/mno-hw-mul/libc.a(lib_a-freer.o)
 .debug_abbrev  0x000016c6      0x1e3 /OPT/altera/12.1/tools/nios2eds/bin/gnu/H-i686-pc-linux-gnu/bin/../lib/gcc/nios2-elf/4.1.2/../../../../nios2-elf/lib/mno-hw-mul/libc.a(lib_a-fwalk.o)
 .debug_abbrev  0x000018a9       0x3b /OPT/altera/12.1/tools/nios2eds/bin/gnu/H-i686-pc-linux-gnu/bin/../lib/gcc/nios2-elf/4.1.2/../../../../nios2-elf/lib/mno-hw-mul/libc.a(lib_a-int_errno.o)
 .debug_abbrev  0x000018e4      0x197 /OPT/altera/12.1/tools/nios2eds/bin/gnu/H-i686-pc-linux-gnu/bin/../lib/gcc/nios2-elf/4.1.2/../../../../nios2-elf/lib/mno-hw-mul/libc.a(lib_a-makebuf.o)
 .debug_abbrev  0x00001a7b       0xb8 /OPT/altera/12.1/tools/nios2eds/bin/gnu/H-i686-pc-linux-gnu/bin/../lib/gcc/nios2-elf/4.1.2/../../../../nios2-elf/lib/mno-hw-mul/libc.a(lib_a-memset.o)
 .debug_abbrev  0x00001b33      0x1c9 /OPT/altera/12.1/tools/nios2eds/bin/gnu/H-i686-pc-linux-gnu/bin/../lib/gcc/nios2-elf/4.1.2/../../../../nios2-elf/lib/mno-hw-mul/libc.a(lib_a-stdio.o)
 .debug_abbrev  0x00001cfc      0x184 /OPT/altera/12.1/tools/nios2eds/bin/gnu/H-i686-pc-linux-gnu/bin/../lib/gcc/nios2-elf/4.1.2/../../../../nios2-elf/lib/mno-hw-mul/libc.a(lib_a-writer.o)
 .debug_abbrev  0x00001e80      0x17f /OPT/altera/12.1/tools/nios2eds/bin/gnu/H-i686-pc-linux-gnu/bin/../lib/gcc/nios2-elf/4.1.2/../../../../nios2-elf/lib/mno-hw-mul/libc.a(lib_a-closer.o)
 .debug_abbrev  0x00001fff      0x1a7 /OPT/altera/12.1/tools/nios2eds/bin/gnu/H-i686-pc-linux-gnu/bin/../lib/gcc/nios2-elf/4.1.2/../../../../nios2-elf/lib/mno-hw-mul/libc.a(lib_a-fclose.o)
 .debug_abbrev  0x000021a6      0x18e /OPT/altera/12.1/tools/nios2eds/bin/gnu/H-i686-pc-linux-gnu/bin/../lib/gcc/nios2-elf/4.1.2/../../../../nios2-elf/lib/mno-hw-mul/libc.a(lib_a-fstatr.o)
 .debug_abbrev  0x00002334      0x17f /OPT/altera/12.1/tools/nios2eds/bin/gnu/H-i686-pc-linux-gnu/bin/../lib/gcc/nios2-elf/4.1.2/../../../../nios2-elf/lib/mno-hw-mul/libc.a(lib_a-isattyr.o)
 .debug_abbrev  0x000024b3      0x18e /OPT/altera/12.1/tools/nios2eds/bin/gnu/H-i686-pc-linux-gnu/bin/../lib/gcc/nios2-elf/4.1.2/../../../../nios2-elf/lib/mno-hw-mul/libc.a(lib_a-lseekr.o)
 .debug_abbrev  0x00002641      0x17f /OPT/altera/12.1/tools/nios2eds/bin/gnu/H-i686-pc-linux-gnu/bin/../lib/gcc/nios2-elf/4.1.2/../../../../nios2-elf/lib/mno-hw-mul/libc.a(lib_a-readr.o)
 .debug_abbrev  0x000027c0      0x102 ../Evo_Synth_bsp//libucosii_bsp.a(alt_close.o)
 .debug_abbrev  0x000028c2      0x10a ../Evo_Synth_bsp//libucosii_bsp.a(alt_dev.o)
 .debug_abbrev  0x000029cc       0x5e ../Evo_Synth_bsp//libucosii_bsp.a(alt_errno.o)
 .debug_abbrev  0x00002a2a      0x102 ../Evo_Synth_bsp//libucosii_bsp.a(alt_fstat.o)
 .debug_abbrev  0x00002b2c      0x102 ../Evo_Synth_bsp//libucosii_bsp.a(alt_isatty.o)
 .debug_abbrev  0x00002c2e       0x88 ../Evo_Synth_bsp//libucosii_bsp.a(alt_load.o)
 .debug_abbrev  0x00002cb6      0x102 ../Evo_Synth_bsp//libucosii_bsp.a(alt_lseek.o)
 .debug_abbrev  0x00002db8      0x120 ../Evo_Synth_bsp//libucosii_bsp.a(alt_main.o)
 .debug_abbrev  0x00002ed8      0x102 ../Evo_Synth_bsp//libucosii_bsp.a(alt_read.o)
 .debug_abbrev  0x00002fda       0xd3 ../Evo_Synth_bsp//libucosii_bsp.a(alt_release_fd.o)
 .debug_abbrev  0x000030ad      0x115 ../Evo_Synth_bsp//libucosii_bsp.a(alt_sbrk.o)
 .debug_abbrev  0x000031c2      0x107 ../Evo_Synth_bsp//libucosii_bsp.a(alt_write.o)
 .debug_abbrev  0x000032c9      0x1b3 ../Evo_Synth_bsp//libucosii_bsp.a(alt_env_lock.o)
 .debug_abbrev  0x0000347c      0x234 ../Evo_Synth_bsp//libucosii_bsp.a(alt_malloc_lock.o)
 .debug_abbrev  0x000036b0      0x2aa ../Evo_Synth_bsp//libucosii_bsp.a(os_core.o)
 .debug_abbrev  0x0000395a      0x114 ../Evo_Synth_bsp//libucosii_bsp.a(os_dbg.o)
 .debug_abbrev  0x00003a6e      0x21b ../Evo_Synth_bsp//libucosii_bsp.a(os_flag.o)
 .debug_abbrev  0x00003c89      0x235 ../Evo_Synth_bsp//libucosii_bsp.a(os_mem.o)
 .debug_abbrev  0x00003ebe      0x20d ../Evo_Synth_bsp//libucosii_bsp.a(os_q.o)
 .debug_abbrev  0x000040cb      0x20d ../Evo_Synth_bsp//libucosii_bsp.a(os_sem.o)
 .debug_abbrev  0x000042d8      0x20e ../Evo_Synth_bsp//libucosii_bsp.a(os_task.o)
 .debug_abbrev  0x000044e6      0x1de ../Evo_Synth_bsp//libucosii_bsp.a(os_time.o)
 .debug_abbrev  0x000046c4      0x1b9 ../Evo_Synth_bsp//libucosii_bsp.a(alt_sys_init.o)
 .debug_abbrev  0x0000487d      0x13c ../Evo_Synth_bsp//libucosii_bsp.a(altera_avalon_jtag_uart_fd.o)
 .debug_abbrev  0x000049b9      0x21e ../Evo_Synth_bsp//libucosii_bsp.a(altera_avalon_jtag_uart_init.o)
 .debug_abbrev  0x00004bd7      0x135 ../Evo_Synth_bsp//libucosii_bsp.a(altera_avalon_jtag_uart_ioctl.o)
 .debug_abbrev  0x00004d0c      0x1ee ../Evo_Synth_bsp//libucosii_bsp.a(altera_avalon_jtag_uart_read.o)
 .debug_abbrev  0x00004efa      0x1ea ../Evo_Synth_bsp//libucosii_bsp.a(altera_avalon_jtag_uart_write.o)
 .debug_abbrev  0x000050e4      0x137 ../Evo_Synth_bsp//libucosii_bsp.a(altera_avalon_timer_sc.o)
 .debug_abbrev  0x0000521b      0x117 ../Evo_Synth_bsp//libucosii_bsp.a(altera_up_avalon_audio_and_video_config.o)
 .debug_abbrev  0x00005332      0x172 ../Evo_Synth_bsp//libucosii_bsp.a(alt_alarm_start.o)
 .debug_abbrev  0x000054a4       0x3f ../Evo_Synth_bsp//libucosii_bsp.a(alt_dcache_flush_all.o)
 .debug_abbrev  0x000054e3       0xf6 ../Evo_Synth_bsp//libucosii_bsp.a(alt_dev_llist_insert.o)
 .debug_abbrev  0x000055d9       0x76 ../Evo_Synth_bsp//libucosii_bsp.a(alt_do_ctors.o)
 .debug_abbrev  0x0000564f       0x76 ../Evo_Synth_bsp//libucosii_bsp.a(alt_do_dtors.o)
 .debug_abbrev  0x000056c5       0xd6 ../Evo_Synth_bsp//libucosii_bsp.a(alt_find_dev.o)
 .debug_abbrev  0x0000579b       0x3f ../Evo_Synth_bsp//libucosii_bsp.a(alt_icache_flush_all.o)
 .debug_abbrev  0x000057da      0x134 ../Evo_Synth_bsp//libucosii_bsp.a(alt_iic.o)
 .debug_abbrev  0x0000590e      0x14e ../Evo_Synth_bsp//libucosii_bsp.a(alt_iic_isr_register.o)
 .debug_abbrev  0x00005a5c       0xf7 ../Evo_Synth_bsp//libucosii_bsp.a(alt_io_redirect.o)
 .debug_abbrev  0x00005b53       0x12 ../Evo_Synth_bsp//libucosii_bsp.a(alt_irq_entry.o)
 .debug_abbrev  0x00005b65      0x124 ../Evo_Synth_bsp//libucosii_bsp.a(alt_irq_handler.o)
 .debug_abbrev  0x00005c89       0x44 ../Evo_Synth_bsp//libucosii_bsp.a(alt_irq_vars.o)
 .debug_abbrev  0x00005ccd      0x119 ../Evo_Synth_bsp//libucosii_bsp.a(alt_open.o)
 .debug_abbrev  0x00005de6      0x150 ../Evo_Synth_bsp//libucosii_bsp.a(alt_tick.o)
 .debug_abbrev  0x00005f36       0x3f ../Evo_Synth_bsp//libucosii_bsp.a(altera_nios2_qsys_irq.o)
 .debug_abbrev  0x00005f75       0x14 ../Evo_Synth_bsp//libucosii_bsp.a(os_cpu_a.o)
 .debug_abbrev  0x00005f89      0x1d0 ../Evo_Synth_bsp//libucosii_bsp.a(os_cpu_c.o)
 .debug_abbrev  0x00006159       0x12 ../Evo_Synth_bsp//libucosii_bsp.a(alt_exception_entry.o)
 .debug_abbrev  0x0000616b       0xd6 ../Evo_Synth_bsp//libucosii_bsp.a(alt_find_file.o)
 .debug_abbrev  0x00006241      0x173 ../Evo_Synth_bsp//libucosii_bsp.a(alt_get_fd.o)
 .debug_abbrev  0x000063b4       0xb7 /OPT/altera/12.1/tools/nios2eds/bin/gnu/H-i686-pc-linux-gnu/bin/../lib/gcc/nios2-elf/4.1.2/../../../../nios2-elf/lib/mno-hw-mul/libc.a(lib_a-atexit.o)
 .debug_abbrev  0x0000646b      0x16e /OPT/altera/12.1/tools/nios2eds/bin/gnu/H-i686-pc-linux-gnu/bin/../lib/gcc/nios2-elf/4.1.2/../../../../nios2-elf/lib/mno-hw-mul/libc.a(lib_a-exit.o)
 .debug_abbrev  0x000065d9       0x7c /OPT/altera/12.1/tools/nios2eds/bin/gnu/H-i686-pc-linux-gnu/bin/../lib/gcc/nios2-elf/4.1.2/../../../../nios2-elf/lib/mno-hw-mul/libc.a(lib_a-memcmp.o)
 .debug_abbrev  0x00006655      0x1ae /OPT/altera/12.1/tools/nios2eds/bin/gnu/H-i686-pc-linux-gnu/bin/../lib/gcc/nios2-elf/4.1.2/../../../../nios2-elf/lib/mno-hw-mul/libc.a(lib_a-__atexit.o)
 .debug_abbrev  0x00006803      0x1de /OPT/altera/12.1/tools/nios2eds/bin/gnu/H-i686-pc-linux-gnu/bin/../lib/gcc/nios2-elf/4.1.2/../../../../nios2-elf/lib/mno-hw-mul/libc.a(lib_a-__call_atexit.o)
 .debug_abbrev  0x000069e1       0xaa ../Evo_Synth_bsp//libucosii_bsp.a(alt_exit.o)

.debug_line     0x00000000    0x14c04
 *(.debug_line)
 .debug_line    0x00000000       0x66 ../Evo_Synth_bsp//obj/HAL/src/crt0.o
 .debug_line    0x00000066      0x3f4 obj/default/hello_ucosii.o
 .debug_line    0x0000045a      0x2c6 /OPT/altera/12.1/tools/nios2eds/bin/gnu/H-i686-pc-linux-gnu/bin/../lib/gcc/nios2-elf/4.1.2/mno-hw-mul/libgcc.a(lib2-divmod.o)
 .debug_line    0x00000720      0x191 /OPT/altera/12.1/tools/nios2eds/bin/gnu/H-i686-pc-linux-gnu/bin/../lib/gcc/nios2-elf/4.1.2/mno-hw-mul/libgcc.a(lib2-mul.o)
 .debug_line    0x000008b1      0x2fa /OPT/altera/12.1/tools/nios2eds/bin/gnu/H-i686-pc-linux-gnu/bin/../lib/gcc/nios2-elf/4.1.2/../../../../nios2-elf/lib/mno-hw-mul/libc.a(lib_a-puts.o)
 .debug_line    0x00000bab      0x270 /OPT/altera/12.1/tools/nios2eds/bin/gnu/H-i686-pc-linux-gnu/bin/../lib/gcc/nios2-elf/4.1.2/../../../../nios2-elf/lib/mno-hw-mul/libc.a(lib_a-strlen.o)
 .debug_line    0x00000e1b      0x644 /OPT/altera/12.1/tools/nios2eds/bin/gnu/H-i686-pc-linux-gnu/bin/../lib/gcc/nios2-elf/4.1.2/../../../../nios2-elf/lib/mno-hw-mul/libc.a(lib_a-fvwrite.o)
 .debug_line    0x0000145f      0x230 /OPT/altera/12.1/tools/nios2eds/bin/gnu/H-i686-pc-linux-gnu/bin/../lib/gcc/nios2-elf/4.1.2/../../../../nios2-elf/lib/mno-hw-mul/libc.a(lib_a-impure.o)
 .debug_line    0x0000168f      0x80d /OPT/altera/12.1/tools/nios2eds/bin/gnu/H-i686-pc-linux-gnu/bin/../lib/gcc/nios2-elf/4.1.2/../../../../nios2-elf/lib/mno-hw-mul/libc.a(lib_a-mallocr.o)
 .debug_line    0x00001e9c      0x306 /OPT/altera/12.1/tools/nios2eds/bin/gnu/H-i686-pc-linux-gnu/bin/../lib/gcc/nios2-elf/4.1.2/../../../../nios2-elf/lib/mno-hw-mul/libc.a(lib_a-memchr.o)
 .debug_line    0x000021a2      0x1af /OPT/altera/12.1/tools/nios2eds/bin/gnu/H-i686-pc-linux-gnu/bin/../lib/gcc/nios2-elf/4.1.2/../../../../nios2-elf/lib/mno-hw-mul/libc.a(lib_a-memcpy.o)
 .debug_line    0x00002351      0x30d /OPT/altera/12.1/tools/nios2eds/bin/gnu/H-i686-pc-linux-gnu/bin/../lib/gcc/nios2-elf/4.1.2/../../../../nios2-elf/lib/mno-hw-mul/libc.a(lib_a-memmove.o)
 .debug_line    0x0000265e      0x58d /OPT/altera/12.1/tools/nios2eds/bin/gnu/H-i686-pc-linux-gnu/bin/../lib/gcc/nios2-elf/4.1.2/../../../../nios2-elf/lib/mno-hw-mul/libc.a(lib_a-reallocr.o)
 .debug_line    0x00002beb      0x29c /OPT/altera/12.1/tools/nios2eds/bin/gnu/H-i686-pc-linux-gnu/bin/../lib/gcc/nios2-elf/4.1.2/../../../../nios2-elf/lib/mno-hw-mul/libc.a(lib_a-sbrkr.o)
 .debug_line    0x00002e87      0x2f3 /OPT/altera/12.1/tools/nios2eds/bin/gnu/H-i686-pc-linux-gnu/bin/../lib/gcc/nios2-elf/4.1.2/../../../../nios2-elf/lib/mno-hw-mul/libc.a(lib_a-wsetup.o)
 .debug_line    0x0000317a      0x410 /OPT/altera/12.1/tools/nios2eds/bin/gnu/H-i686-pc-linux-gnu/bin/../lib/gcc/nios2-elf/4.1.2/../../../../nios2-elf/lib/mno-hw-mul/libc.a(lib_a-fflush.o)
 .debug_line    0x0000358a      0x60c /OPT/altera/12.1/tools/nios2eds/bin/gnu/H-i686-pc-linux-gnu/bin/../lib/gcc/nios2-elf/4.1.2/../../../../nios2-elf/lib/mno-hw-mul/libc.a(lib_a-findfp.o)
 .debug_line    0x00003b96      0x5ee /OPT/altera/12.1/tools/nios2eds/bin/gnu/H-i686-pc-linux-gnu/bin/../lib/gcc/nios2-elf/4.1.2/../../../../nios2-elf/lib/mno-hw-mul/libc.a(lib_a-freer.o)
 .debug_line    0x00004184      0x34d /OPT/altera/12.1/tools/nios2eds/bin/gnu/H-i686-pc-linux-gnu/bin/../lib/gcc/nios2-elf/4.1.2/../../../../nios2-elf/lib/mno-hw-mul/libc.a(lib_a-fwalk.o)
 .debug_line    0x000044d1      0x1e2 /OPT/altera/12.1/tools/nios2eds/bin/gnu/H-i686-pc-linux-gnu/bin/../lib/gcc/nios2-elf/4.1.2/../../../../nios2-elf/lib/mno-hw-mul/libc.a(lib_a-int_errno.o)
 .debug_line    0x000046b3      0x3c6 /OPT/altera/12.1/tools/nios2eds/bin/gnu/H-i686-pc-linux-gnu/bin/../lib/gcc/nios2-elf/4.1.2/../../../../nios2-elf/lib/mno-hw-mul/libc.a(lib_a-makebuf.o)
 .debug_line    0x00004a79      0x304 /OPT/altera/12.1/tools/nios2eds/bin/gnu/H-i686-pc-linux-gnu/bin/../lib/gcc/nios2-elf/4.1.2/../../../../nios2-elf/lib/mno-hw-mul/libc.a(lib_a-memset.o)
 .debug_line    0x00004d7d      0x38f /OPT/altera/12.1/tools/nios2eds/bin/gnu/H-i686-pc-linux-gnu/bin/../lib/gcc/nios2-elf/4.1.2/../../../../nios2-elf/lib/mno-hw-mul/libc.a(lib_a-stdio.o)
 .debug_line    0x0000510c      0x29d /OPT/altera/12.1/tools/nios2eds/bin/gnu/H-i686-pc-linux-gnu/bin/../lib/gcc/nios2-elf/4.1.2/../../../../nios2-elf/lib/mno-hw-mul/libc.a(lib_a-writer.o)
 .debug_line    0x000053a9      0x29d /OPT/altera/12.1/tools/nios2eds/bin/gnu/H-i686-pc-linux-gnu/bin/../lib/gcc/nios2-elf/4.1.2/../../../../nios2-elf/lib/mno-hw-mul/libc.a(lib_a-closer.o)
 .debug_line    0x00005646      0x2eb /OPT/altera/12.1/tools/nios2eds/bin/gnu/H-i686-pc-linux-gnu/bin/../lib/gcc/nios2-elf/4.1.2/../../../../nios2-elf/lib/mno-hw-mul/libc.a(lib_a-fclose.o)
 .debug_line    0x00005931      0x267 /OPT/altera/12.1/tools/nios2eds/bin/gnu/H-i686-pc-linux-gnu/bin/../lib/gcc/nios2-elf/4.1.2/../../../../nios2-elf/lib/mno-hw-mul/libc.a(lib_a-fstatr.o)
 .debug_line    0x00005b98      0x29e /OPT/altera/12.1/tools/nios2eds/bin/gnu/H-i686-pc-linux-gnu/bin/../lib/gcc/nios2-elf/4.1.2/../../../../nios2-elf/lib/mno-hw-mul/libc.a(lib_a-isattyr.o)
 .debug_line    0x00005e36      0x29d /OPT/altera/12.1/tools/nios2eds/bin/gnu/H-i686-pc-linux-gnu/bin/../lib/gcc/nios2-elf/4.1.2/../../../../nios2-elf/lib/mno-hw-mul/libc.a(lib_a-lseekr.o)
 .debug_line    0x000060d3      0x29c /OPT/altera/12.1/tools/nios2eds/bin/gnu/H-i686-pc-linux-gnu/bin/../lib/gcc/nios2-elf/4.1.2/../../../../nios2-elf/lib/mno-hw-mul/libc.a(lib_a-readr.o)
 .debug_line    0x0000636f      0x30d ../Evo_Synth_bsp//libucosii_bsp.a(alt_close.o)
 .debug_line    0x0000667c      0x2ce ../Evo_Synth_bsp//libucosii_bsp.a(alt_dev.o)
 .debug_line    0x0000694a      0x1be ../Evo_Synth_bsp//libucosii_bsp.a(alt_errno.o)
 .debug_line    0x00006b08      0x315 ../Evo_Synth_bsp//libucosii_bsp.a(alt_fstat.o)
 .debug_line    0x00006e1d      0x316 ../Evo_Synth_bsp//libucosii_bsp.a(alt_isatty.o)
 .debug_line    0x00007133      0x22b ../Evo_Synth_bsp//libucosii_bsp.a(alt_load.o)
 .debug_line    0x0000735e      0x315 ../Evo_Synth_bsp//libucosii_bsp.a(alt_lseek.o)
 .debug_line    0x00007673      0x35d ../Evo_Synth_bsp//libucosii_bsp.a(alt_main.o)
 .debug_line    0x000079d0      0x33c ../Evo_Synth_bsp//libucosii_bsp.a(alt_read.o)
 .debug_line    0x00007d0c      0x28d ../Evo_Synth_bsp//libucosii_bsp.a(alt_release_fd.o)
 .debug_line    0x00007f99      0x275 ../Evo_Synth_bsp//libucosii_bsp.a(alt_sbrk.o)
 .debug_line    0x0000820e      0x33d ../Evo_Synth_bsp//libucosii_bsp.a(alt_write.o)
 .debug_line    0x0000854b      0x2d3 ../Evo_Synth_bsp//libucosii_bsp.a(alt_env_lock.o)
 .debug_line    0x0000881e      0x38f ../Evo_Synth_bsp//libucosii_bsp.a(alt_malloc_lock.o)
 .debug_line    0x00008bad     0x1677 ../Evo_Synth_bsp//libucosii_bsp.a(os_core.o)
 .debug_line    0x0000a224      0x39c ../Evo_Synth_bsp//libucosii_bsp.a(os_dbg.o)
 .debug_line    0x0000a5c0     0x11fb ../Evo_Synth_bsp//libucosii_bsp.a(os_flag.o)
 .debug_line    0x0000b7bb      0x79e ../Evo_Synth_bsp//libucosii_bsp.a(os_mem.o)
 .debug_line    0x0000bf59      0xe7f ../Evo_Synth_bsp//libucosii_bsp.a(os_q.o)
 .debug_line    0x0000cdd8      0xa37 ../Evo_Synth_bsp//libucosii_bsp.a(os_sem.o)
 .debug_line    0x0000d80f     0x1140 ../Evo_Synth_bsp//libucosii_bsp.a(os_task.o)
 .debug_line    0x0000e94f      0x543 ../Evo_Synth_bsp//libucosii_bsp.a(os_time.o)
 .debug_line    0x0000ee92      0x342 ../Evo_Synth_bsp//libucosii_bsp.a(alt_sys_init.o)
 .debug_line    0x0000f1d4      0x32d ../Evo_Synth_bsp//libucosii_bsp.a(altera_avalon_jtag_uart_fd.o)
 .debug_line    0x0000f501      0x5ac ../Evo_Synth_bsp//libucosii_bsp.a(altera_avalon_jtag_uart_init.o)
 .debug_line    0x0000faad      0x36a ../Evo_Synth_bsp//libucosii_bsp.a(altera_avalon_jtag_uart_ioctl.o)
 .debug_line    0x0000fe17      0x4a8 ../Evo_Synth_bsp//libucosii_bsp.a(altera_avalon_jtag_uart_read.o)
 .debug_line    0x000102bf      0x4b6 ../Evo_Synth_bsp//libucosii_bsp.a(altera_avalon_jtag_uart_write.o)
 .debug_line    0x00010775      0x2c7 ../Evo_Synth_bsp//libucosii_bsp.a(altera_avalon_timer_sc.o)
 .debug_line    0x00010a3c      0x5bb ../Evo_Synth_bsp//libucosii_bsp.a(altera_up_avalon_audio_and_video_config.o)
 .debug_line    0x00010ff7      0x2f0 ../Evo_Synth_bsp//libucosii_bsp.a(alt_alarm_start.o)
 .debug_line    0x000112e7      0x1c9 ../Evo_Synth_bsp//libucosii_bsp.a(alt_dcache_flush_all.o)
 .debug_line    0x000114b0      0x26e ../Evo_Synth_bsp//libucosii_bsp.a(alt_dev_llist_insert.o)
 .debug_line    0x0001171e       0x83 ../Evo_Synth_bsp//libucosii_bsp.a(alt_do_ctors.o)
 .debug_line    0x000117a1       0x83 ../Evo_Synth_bsp//libucosii_bsp.a(alt_do_dtors.o)
 .debug_line    0x00011824      0x2ee ../Evo_Synth_bsp//libucosii_bsp.a(alt_find_dev.o)
 .debug_line    0x00011b12      0x1c9 ../Evo_Synth_bsp//libucosii_bsp.a(alt_icache_flush_all.o)
 .debug_line    0x00011cdb      0x2dc ../Evo_Synth_bsp//libucosii_bsp.a(alt_iic.o)
 .debug_line    0x00011fb7      0x25d ../Evo_Synth_bsp//libucosii_bsp.a(alt_iic_isr_register.o)
 .debug_line    0x00012214      0x337 ../Evo_Synth_bsp//libucosii_bsp.a(alt_io_redirect.o)
 .debug_line    0x0001254b       0x6b ../Evo_Synth_bsp//libucosii_bsp.a(alt_irq_entry.o)
 .debug_line    0x000125b6      0x2d8 ../Evo_Synth_bsp//libucosii_bsp.a(alt_irq_handler.o)
 .debug_line    0x0001288e       0x72 ../Evo_Synth_bsp//libucosii_bsp.a(alt_irq_vars.o)
 .debug_line    0x00012900      0x373 ../Evo_Synth_bsp//libucosii_bsp.a(alt_open.o)
 .debug_line    0x00012c73      0x32a ../Evo_Synth_bsp//libucosii_bsp.a(alt_tick.o)
 .debug_line    0x00012f9d      0x1e2 ../Evo_Synth_bsp//libucosii_bsp.a(altera_nios2_qsys_irq.o)
 .debug_line    0x0001317f       0x86 ../Evo_Synth_bsp//libucosii_bsp.a(os_cpu_a.o)
 .debug_line    0x00013205      0x33c ../Evo_Synth_bsp//libucosii_bsp.a(os_cpu_c.o)
 .debug_line    0x00013541       0xab ../Evo_Synth_bsp//libucosii_bsp.a(alt_exception_entry.o)
 .debug_line    0x000135ec      0x2ff ../Evo_Synth_bsp//libucosii_bsp.a(alt_find_file.o)
 .debug_line    0x000138eb      0x32f ../Evo_Synth_bsp//libucosii_bsp.a(alt_get_fd.o)
 .debug_line    0x00013c1a      0x203 /OPT/altera/12.1/tools/nios2eds/bin/gnu/H-i686-pc-linux-gnu/bin/../lib/gcc/nios2-elf/4.1.2/../../../../nios2-elf/lib/mno-hw-mul/libc.a(lib_a-atexit.o)
 .debug_line    0x00013e1d      0x23b /OPT/altera/12.1/tools/nios2eds/bin/gnu/H-i686-pc-linux-gnu/bin/../lib/gcc/nios2-elf/4.1.2/../../../../nios2-elf/lib/mno-hw-mul/libc.a(lib_a-exit.o)
 .debug_line    0x00014058      0x2a2 /OPT/altera/12.1/tools/nios2eds/bin/gnu/H-i686-pc-linux-gnu/bin/../lib/gcc/nios2-elf/4.1.2/../../../../nios2-elf/lib/mno-hw-mul/libc.a(lib_a-memcmp.o)
 .debug_line    0x000142fa      0x316 /OPT/altera/12.1/tools/nios2eds/bin/gnu/H-i686-pc-linux-gnu/bin/../lib/gcc/nios2-elf/4.1.2/../../../../nios2-elf/lib/mno-hw-mul/libc.a(lib_a-__atexit.o)
 .debug_line    0x00014610      0x36a /OPT/altera/12.1/tools/nios2eds/bin/gnu/H-i686-pc-linux-gnu/bin/../lib/gcc/nios2-elf/4.1.2/../../../../nios2-elf/lib/mno-hw-mul/libc.a(lib_a-__call_atexit.o)
 .debug_line    0x0001497a      0x28a ../Evo_Synth_bsp//libucosii_bsp.a(alt_exit.o)

.debug_frame    0x00000000     0x1ea0
 *(.debug_frame)
 .debug_frame   0x00000000       0x4c obj/default/hello_ucosii.o
 .debug_frame   0x0000004c       0x70 /OPT/altera/12.1/tools/nios2eds/bin/gnu/H-i686-pc-linux-gnu/bin/../lib/gcc/nios2-elf/4.1.2/mno-hw-mul/libgcc.a(lib2-divmod.o)
 .debug_frame   0x000000bc       0x20 /OPT/altera/12.1/tools/nios2eds/bin/gnu/H-i686-pc-linux-gnu/bin/../lib/gcc/nios2-elf/4.1.2/mno-hw-mul/libgcc.a(lib2-mul.o)
 .debug_frame   0x000000dc       0x3c /OPT/altera/12.1/tools/nios2eds/bin/gnu/H-i686-pc-linux-gnu/bin/../lib/gcc/nios2-elf/4.1.2/../../../../nios2-elf/lib/mno-hw-mul/libc.a(lib_a-puts.o)
 .debug_frame   0x00000118       0x20 /OPT/altera/12.1/tools/nios2eds/bin/gnu/H-i686-pc-linux-gnu/bin/../lib/gcc/nios2-elf/4.1.2/../../../../nios2-elf/lib/mno-hw-mul/libc.a(lib_a-strlen.o)
 .debug_frame   0x00000138       0x38 /OPT/altera/12.1/tools/nios2eds/bin/gnu/H-i686-pc-linux-gnu/bin/../lib/gcc/nios2-elf/4.1.2/../../../../nios2-elf/lib/mno-hw-mul/libc.a(lib_a-fvwrite.o)
 .debug_frame   0x00000170       0x38 /OPT/altera/12.1/tools/nios2eds/bin/gnu/H-i686-pc-linux-gnu/bin/../lib/gcc/nios2-elf/4.1.2/../../../../nios2-elf/lib/mno-hw-mul/libc.a(lib_a-mallocr.o)
 .debug_frame   0x000001a8       0x20 /OPT/altera/12.1/tools/nios2eds/bin/gnu/H-i686-pc-linux-gnu/bin/../lib/gcc/nios2-elf/4.1.2/../../../../nios2-elf/lib/mno-hw-mul/libc.a(lib_a-memchr.o)
 .debug_frame   0x000001c8       0x20 /OPT/altera/12.1/tools/nios2eds/bin/gnu/H-i686-pc-linux-gnu/bin/../lib/gcc/nios2-elf/4.1.2/../../../../nios2-elf/lib/mno-hw-mul/libc.a(lib_a-memcpy.o)
 .debug_frame   0x000001e8       0x20 /OPT/altera/12.1/tools/nios2eds/bin/gnu/H-i686-pc-linux-gnu/bin/../lib/gcc/nios2-elf/4.1.2/../../../../nios2-elf/lib/mno-hw-mul/libc.a(lib_a-memmove.o)
 .debug_frame   0x00000208       0x38 /OPT/altera/12.1/tools/nios2eds/bin/gnu/H-i686-pc-linux-gnu/bin/../lib/gcc/nios2-elf/4.1.2/../../../../nios2-elf/lib/mno-hw-mul/libc.a(lib_a-reallocr.o)
 .debug_frame   0x00000240       0x2c /OPT/altera/12.1/tools/nios2eds/bin/gnu/H-i686-pc-linux-gnu/bin/../lib/gcc/nios2-elf/4.1.2/../../../../nios2-elf/lib/mno-hw-mul/libc.a(lib_a-sbrkr.o)
 .debug_frame   0x0000026c       0x2c /OPT/altera/12.1/tools/nios2eds/bin/gnu/H-i686-pc-linux-gnu/bin/../lib/gcc/nios2-elf/4.1.2/../../../../nios2-elf/lib/mno-hw-mul/libc.a(lib_a-wsetup.o)
 .debug_frame   0x00000298       0x40 /OPT/altera/12.1/tools/nios2eds/bin/gnu/H-i686-pc-linux-gnu/bin/../lib/gcc/nios2-elf/4.1.2/../../../../nios2-elf/lib/mno-hw-mul/libc.a(lib_a-fflush.o)
 .debug_frame   0x000002d8      0x118 /OPT/altera/12.1/tools/nios2eds/bin/gnu/H-i686-pc-linux-gnu/bin/../lib/gcc/nios2-elf/4.1.2/../../../../nios2-elf/lib/mno-hw-mul/libc.a(lib_a-findfp.o)
 .debug_frame   0x000003f0       0x4c /OPT/altera/12.1/tools/nios2eds/bin/gnu/H-i686-pc-linux-gnu/bin/../lib/gcc/nios2-elf/4.1.2/../../../../nios2-elf/lib/mno-hw-mul/libc.a(lib_a-freer.o)
 .debug_frame   0x0000043c       0x60 /OPT/altera/12.1/tools/nios2eds/bin/gnu/H-i686-pc-linux-gnu/bin/../lib/gcc/nios2-elf/4.1.2/../../../../nios2-elf/lib/mno-hw-mul/libc.a(lib_a-fwalk.o)
 .debug_frame   0x0000049c       0x2c /OPT/altera/12.1/tools/nios2eds/bin/gnu/H-i686-pc-linux-gnu/bin/../lib/gcc/nios2-elf/4.1.2/../../../../nios2-elf/lib/mno-hw-mul/libc.a(lib_a-makebuf.o)
 .debug_frame   0x000004c8       0x20 /OPT/altera/12.1/tools/nios2eds/bin/gnu/H-i686-pc-linux-gnu/bin/../lib/gcc/nios2-elf/4.1.2/../../../../nios2-elf/lib/mno-hw-mul/libc.a(lib_a-memset.o)
 .debug_frame   0x000004e8       0x78 /OPT/altera/12.1/tools/nios2eds/bin/gnu/H-i686-pc-linux-gnu/bin/../lib/gcc/nios2-elf/4.1.2/../../../../nios2-elf/lib/mno-hw-mul/libc.a(lib_a-stdio.o)
 .debug_frame   0x00000560       0x2c /OPT/altera/12.1/tools/nios2eds/bin/gnu/H-i686-pc-linux-gnu/bin/../lib/gcc/nios2-elf/4.1.2/../../../../nios2-elf/lib/mno-hw-mul/libc.a(lib_a-writer.o)
 .debug_frame   0x0000058c       0x2c /OPT/altera/12.1/tools/nios2eds/bin/gnu/H-i686-pc-linux-gnu/bin/../lib/gcc/nios2-elf/4.1.2/../../../../nios2-elf/lib/mno-hw-mul/libc.a(lib_a-closer.o)
 .debug_frame   0x000005b8       0x3c /OPT/altera/12.1/tools/nios2eds/bin/gnu/H-i686-pc-linux-gnu/bin/../lib/gcc/nios2-elf/4.1.2/../../../../nios2-elf/lib/mno-hw-mul/libc.a(lib_a-fclose.o)
 .debug_frame   0x000005f4       0x2c /OPT/altera/12.1/tools/nios2eds/bin/gnu/H-i686-pc-linux-gnu/bin/../lib/gcc/nios2-elf/4.1.2/../../../../nios2-elf/lib/mno-hw-mul/libc.a(lib_a-fstatr.o)
 .debug_frame   0x00000620       0x2c /OPT/altera/12.1/tools/nios2eds/bin/gnu/H-i686-pc-linux-gnu/bin/../lib/gcc/nios2-elf/4.1.2/../../../../nios2-elf/lib/mno-hw-mul/libc.a(lib_a-isattyr.o)
 .debug_frame   0x0000064c       0x2c /OPT/altera/12.1/tools/nios2eds/bin/gnu/H-i686-pc-linux-gnu/bin/../lib/gcc/nios2-elf/4.1.2/../../../../nios2-elf/lib/mno-hw-mul/libc.a(lib_a-lseekr.o)
 .debug_frame   0x00000678       0x2c /OPT/altera/12.1/tools/nios2eds/bin/gnu/H-i686-pc-linux-gnu/bin/../lib/gcc/nios2-elf/4.1.2/../../../../nios2-elf/lib/mno-hw-mul/libc.a(lib_a-readr.o)
 .debug_frame   0x000006a4       0x48 ../Evo_Synth_bsp//libucosii_bsp.a(alt_close.o)
 .debug_frame   0x000006ec       0x2c ../Evo_Synth_bsp//libucosii_bsp.a(alt_dev.o)
 .debug_frame   0x00000718       0x48 ../Evo_Synth_bsp//libucosii_bsp.a(alt_fstat.o)
 .debug_frame   0x00000760       0x48 ../Evo_Synth_bsp//libucosii_bsp.a(alt_isatty.o)
 .debug_frame   0x000007a8       0x48 ../Evo_Synth_bsp//libucosii_bsp.a(alt_load.o)
 .debug_frame   0x000007f0       0x48 ../Evo_Synth_bsp//libucosii_bsp.a(alt_lseek.o)
 .debug_frame   0x00000838       0x2c ../Evo_Synth_bsp//libucosii_bsp.a(alt_main.o)
 .debug_frame   0x00000864       0x48 ../Evo_Synth_bsp//libucosii_bsp.a(alt_read.o)
 .debug_frame   0x000008ac       0x30 ../Evo_Synth_bsp//libucosii_bsp.a(alt_release_fd.o)
 .debug_frame   0x000008dc       0x2c ../Evo_Synth_bsp//libucosii_bsp.a(alt_sbrk.o)
 .debug_frame   0x00000908       0x48 ../Evo_Synth_bsp//libucosii_bsp.a(alt_write.o)
 .debug_frame   0x00000950       0x4c ../Evo_Synth_bsp//libucosii_bsp.a(alt_env_lock.o)
 .debug_frame   0x0000099c       0x4c ../Evo_Synth_bsp//libucosii_bsp.a(alt_malloc_lock.o)
 .debug_frame   0x000009e8      0x3e4 ../Evo_Synth_bsp//libucosii_bsp.a(os_core.o)
 .debug_frame   0x00000dcc       0x2c ../Evo_Synth_bsp//libucosii_bsp.a(os_dbg.o)
 .debug_frame   0x00000df8      0x180 ../Evo_Synth_bsp//libucosii_bsp.a(os_flag.o)
 .debug_frame   0x00000f78       0xd4 ../Evo_Synth_bsp//libucosii_bsp.a(os_mem.o)
 .debug_frame   0x0000104c      0x144 ../Evo_Synth_bsp//libucosii_bsp.a(os_q.o)
 .debug_frame   0x00001190       0xf0 ../Evo_Synth_bsp//libucosii_bsp.a(os_sem.o)
 .debug_frame   0x00001280      0x160 ../Evo_Synth_bsp//libucosii_bsp.a(os_task.o)
 .debug_frame   0x000013e0       0xa0 ../Evo_Synth_bsp//libucosii_bsp.a(os_time.o)
 .debug_frame   0x00001480       0x64 ../Evo_Synth_bsp//libucosii_bsp.a(alt_sys_init.o)
 .debug_frame   0x000014e4       0x80 ../Evo_Synth_bsp//libucosii_bsp.a(altera_avalon_jtag_uart_fd.o)
 .debug_frame   0x00001564       0x80 ../Evo_Synth_bsp//libucosii_bsp.a(altera_avalon_jtag_uart_init.o)
 .debug_frame   0x000015e4       0x2c ../Evo_Synth_bsp//libucosii_bsp.a(altera_avalon_jtag_uart_ioctl.o)
 .debug_frame   0x00001610       0x2c ../Evo_Synth_bsp//libucosii_bsp.a(altera_avalon_jtag_uart_read.o)
 .debug_frame   0x0000163c       0x2c ../Evo_Synth_bsp//libucosii_bsp.a(altera_avalon_jtag_uart_write.o)
 .debug_frame   0x00001668       0x48 ../Evo_Synth_bsp//libucosii_bsp.a(altera_avalon_timer_sc.o)
 .debug_frame   0x000016b0      0x1ec ../Evo_Synth_bsp//libucosii_bsp.a(altera_up_avalon_audio_and_video_config.o)
 .debug_frame   0x0000189c       0x2c ../Evo_Synth_bsp//libucosii_bsp.a(alt_alarm_start.o)
 .debug_frame   0x000018c8       0x2c ../Evo_Synth_bsp//libucosii_bsp.a(alt_dcache_flush_all.o)
 .debug_frame   0x000018f4       0x48 ../Evo_Synth_bsp//libucosii_bsp.a(alt_dev_llist_insert.o)
 .debug_frame   0x0000193c       0x2c ../Evo_Synth_bsp//libucosii_bsp.a(alt_do_ctors.o)
 .debug_frame   0x00001968       0x2c ../Evo_Synth_bsp//libucosii_bsp.a(alt_do_dtors.o)
 .debug_frame   0x00001994       0x2c ../Evo_Synth_bsp//libucosii_bsp.a(alt_find_dev.o)
 .debug_frame   0x000019c0       0x2c ../Evo_Synth_bsp//libucosii_bsp.a(alt_icache_flush_all.o)
 .debug_frame   0x000019ec       0x80 ../Evo_Synth_bsp//libucosii_bsp.a(alt_iic.o)
 .debug_frame   0x00001a6c       0x2c ../Evo_Synth_bsp//libucosii_bsp.a(alt_iic_isr_register.o)
 .debug_frame   0x00001a98       0x4c ../Evo_Synth_bsp//libucosii_bsp.a(alt_io_redirect.o)
 .debug_frame   0x00001ae4       0x2c ../Evo_Synth_bsp//libucosii_bsp.a(alt_irq_handler.o)
 .debug_frame   0x00001b10       0x68 ../Evo_Synth_bsp//libucosii_bsp.a(alt_open.o)
 .debug_frame   0x00001b78       0x48 ../Evo_Synth_bsp//libucosii_bsp.a(alt_tick.o)
 .debug_frame   0x00001bc0       0x2c ../Evo_Synth_bsp//libucosii_bsp.a(altera_nios2_qsys_irq.o)
 .debug_frame   0x00001bec      0x128 ../Evo_Synth_bsp//libucosii_bsp.a(os_cpu_c.o)
 .debug_frame   0x00001d14       0x2c ../Evo_Synth_bsp//libucosii_bsp.a(alt_find_file.o)
 .debug_frame   0x00001d40       0x30 ../Evo_Synth_bsp//libucosii_bsp.a(alt_get_fd.o)
 .debug_frame   0x00001d70       0x20 /OPT/altera/12.1/tools/nios2eds/bin/gnu/H-i686-pc-linux-gnu/bin/../lib/gcc/nios2-elf/4.1.2/../../../../nios2-elf/lib/mno-hw-mul/libc.a(lib_a-atexit.o)
 .debug_frame   0x00001d90       0x28 /OPT/altera/12.1/tools/nios2eds/bin/gnu/H-i686-pc-linux-gnu/bin/../lib/gcc/nios2-elf/4.1.2/../../../../nios2-elf/lib/mno-hw-mul/libc.a(lib_a-exit.o)
 .debug_frame   0x00001db8       0x20 /OPT/altera/12.1/tools/nios2eds/bin/gnu/H-i686-pc-linux-gnu/bin/../lib/gcc/nios2-elf/4.1.2/../../../../nios2-elf/lib/mno-hw-mul/libc.a(lib_a-memcmp.o)
 .debug_frame   0x00001dd8       0x34 /OPT/altera/12.1/tools/nios2eds/bin/gnu/H-i686-pc-linux-gnu/bin/../lib/gcc/nios2-elf/4.1.2/../../../../nios2-elf/lib/mno-hw-mul/libc.a(lib_a-__atexit.o)
 .debug_frame   0x00001e0c       0x4c /OPT/altera/12.1/tools/nios2eds/bin/gnu/H-i686-pc-linux-gnu/bin/../lib/gcc/nios2-elf/4.1.2/../../../../nios2-elf/lib/mno-hw-mul/libc.a(lib_a-__call_atexit.o)
 .debug_frame   0x00001e58       0x48 ../Evo_Synth_bsp//libucosii_bsp.a(alt_exit.o)

.debug_str      0x00000000     0x1a5b
 *(.debug_str)
 .debug_str     0x00000000       0x38 obj/default/hello_ucosii.o
 .debug_str     0x00000038      0x16c /OPT/altera/12.1/tools/nios2eds/bin/gnu/H-i686-pc-linux-gnu/bin/../lib/gcc/nios2-elf/4.1.2/mno-hw-mul/libgcc.a(lib2-divmod.o)
                                0x1b9 (size before relaxing)
 .debug_str     0x000001a4       0x37 /OPT/altera/12.1/tools/nios2eds/bin/gnu/H-i686-pc-linux-gnu/bin/../lib/gcc/nios2-elf/4.1.2/mno-hw-mul/libgcc.a(lib2-mul.o)
                                0x17a (size before relaxing)
 .debug_str     0x000001db      0x486 /OPT/altera/12.1/tools/nios2eds/bin/gnu/H-i686-pc-linux-gnu/bin/../lib/gcc/nios2-elf/4.1.2/../../../../nios2-elf/lib/mno-hw-mul/libc.a(lib_a-puts.o)
                                0x55c (size before relaxing)
 .debug_str     0x00000661       0xee /OPT/altera/12.1/tools/nios2eds/bin/gnu/H-i686-pc-linux-gnu/bin/../lib/gcc/nios2-elf/4.1.2/../../../../nios2-elf/lib/mno-hw-mul/libc.a(lib_a-strlen.o)
                                0x190 (size before relaxing)
 .debug_str     0x0000074f       0x69 /OPT/altera/12.1/tools/nios2eds/bin/gnu/H-i686-pc-linux-gnu/bin/../lib/gcc/nios2-elf/4.1.2/../../../../nios2-elf/lib/mno-hw-mul/libc.a(lib_a-fvwrite.o)
                                0x576 (size before relaxing)
 .debug_str     0x000007b8       0xf7 /OPT/altera/12.1/tools/nios2eds/bin/gnu/H-i686-pc-linux-gnu/bin/../lib/gcc/nios2-elf/4.1.2/../../../../nios2-elf/lib/mno-hw-mul/libc.a(lib_a-impure.o)
                                0x52d (size before relaxing)
 .debug_str     0x000008af      0x2ad /OPT/altera/12.1/tools/nios2eds/bin/gnu/H-i686-pc-linux-gnu/bin/../lib/gcc/nios2-elf/4.1.2/../../../../nios2-elf/lib/mno-hw-mul/libc.a(lib_a-mallocr.o)
                                0x704 (size before relaxing)
 .debug_str     0x00000b5c       0x66 /OPT/altera/12.1/tools/nios2eds/bin/gnu/H-i686-pc-linux-gnu/bin/../lib/gcc/nios2-elf/4.1.2/../../../../nios2-elf/lib/mno-hw-mul/libc.a(lib_a-memchr.o)
                                0x19e (size before relaxing)
 .debug_str     0x00000bc2       0x6c /OPT/altera/12.1/tools/nios2eds/bin/gnu/H-i686-pc-linux-gnu/bin/../lib/gcc/nios2-elf/4.1.2/../../../../nios2-elf/lib/mno-hw-mul/libc.a(lib_a-memcpy.o)
                                0x13b (size before relaxing)
 .debug_str     0x00000c2e       0x50 /OPT/altera/12.1/tools/nios2eds/bin/gnu/H-i686-pc-linux-gnu/bin/../lib/gcc/nios2-elf/4.1.2/../../../../nios2-elf/lib/mno-hw-mul/libc.a(lib_a-memmove.o)
                                0x1b0 (size before relaxing)
 .debug_str     0x00000c7e       0x59 /OPT/altera/12.1/tools/nios2eds/bin/gnu/H-i686-pc-linux-gnu/bin/../lib/gcc/nios2-elf/4.1.2/../../../../nios2-elf/lib/mno-hw-mul/libc.a(lib_a-reallocr.o)
                                0x5d6 (size before relaxing)
 .debug_str     0x00000cd7       0x53 /OPT/altera/12.1/tools/nios2eds/bin/gnu/H-i686-pc-linux-gnu/bin/../lib/gcc/nios2-elf/4.1.2/../../../../nios2-elf/lib/mno-hw-mul/libc.a(lib_a-sbrkr.o)
                                0x51e (size before relaxing)
 .debug_str     0x00000d2a       0x49 /OPT/altera/12.1/tools/nios2eds/bin/gnu/H-i686-pc-linux-gnu/bin/../lib/gcc/nios2-elf/4.1.2/../../../../nios2-elf/lib/mno-hw-mul/libc.a(lib_a-wsetup.o)
                                0x51f (size before relaxing)
 .debug_str     0x00000d73       0x55 /OPT/altera/12.1/tools/nios2eds/bin/gnu/H-i686-pc-linux-gnu/bin/../lib/gcc/nios2-elf/4.1.2/../../../../nios2-elf/lib/mno-hw-mul/libc.a(lib_a-fflush.o)
                                0x545 (size before relaxing)
 .debug_str     0x00000dc8      0x105 /OPT/altera/12.1/tools/nios2eds/bin/gnu/H-i686-pc-linux-gnu/bin/../lib/gcc/nios2-elf/4.1.2/../../../../nios2-elf/lib/mno-hw-mul/libc.a(lib_a-findfp.o)
                                0x607 (size before relaxing)
 .debug_str     0x00000ecd       0x3c /OPT/altera/12.1/tools/nios2eds/bin/gnu/H-i686-pc-linux-gnu/bin/../lib/gcc/nios2-elf/4.1.2/../../../../nios2-elf/lib/mno-hw-mul/libc.a(lib_a-freer.o)
                                0x656 (size before relaxing)
 .debug_str     0x00000f09       0x61 /OPT/altera/12.1/tools/nios2eds/bin/gnu/H-i686-pc-linux-gnu/bin/../lib/gcc/nios2-elf/4.1.2/../../../../nios2-elf/lib/mno-hw-mul/libc.a(lib_a-fwalk.o)
                                0x548 (size before relaxing)
 .debug_str     0x00000f6a       0x40 /OPT/altera/12.1/tools/nios2eds/bin/gnu/H-i686-pc-linux-gnu/bin/../lib/gcc/nios2-elf/4.1.2/../../../../nios2-elf/lib/mno-hw-mul/libc.a(lib_a-int_errno.o)
                                0x176 (size before relaxing)
 .debug_str     0x00000faa      0x126 /OPT/altera/12.1/tools/nios2eds/bin/gnu/H-i686-pc-linux-gnu/bin/../lib/gcc/nios2-elf/4.1.2/../../../../nios2-elf/lib/mno-hw-mul/libc.a(lib_a-makebuf.o)
                                0x619 (size before relaxing)
 .debug_str     0x000010d0       0x45 /OPT/altera/12.1/tools/nios2eds/bin/gnu/H-i686-pc-linux-gnu/bin/../lib/gcc/nios2-elf/4.1.2/../../../../nios2-elf/lib/mno-hw-mul/libc.a(lib_a-memset.o)
                                0x191 (size before relaxing)
 .debug_str     0x00001115       0x65 /OPT/altera/12.1/tools/nios2eds/bin/gnu/H-i686-pc-linux-gnu/bin/../lib/gcc/nios2-elf/4.1.2/../../../../nios2-elf/lib/mno-hw-mul/libc.a(lib_a-stdio.o)
                                0x544 (size before relaxing)
 .debug_str     0x0000117a       0x4f /OPT/altera/12.1/tools/nios2eds/bin/gnu/H-i686-pc-linux-gnu/bin/../lib/gcc/nios2-elf/4.1.2/../../../../nios2-elf/lib/mno-hw-mul/libc.a(lib_a-writer.o)
                                0x521 (size before relaxing)
 .debug_str     0x000011c9       0x46 /OPT/altera/12.1/tools/nios2eds/bin/gnu/H-i686-pc-linux-gnu/bin/../lib/gcc/nios2-elf/4.1.2/../../../../nios2-elf/lib/mno-hw-mul/libc.a(lib_a-closer.o)
                                0x511 (size before relaxing)
 .debug_str     0x0000120f       0x53 /OPT/altera/12.1/tools/nios2eds/bin/gnu/H-i686-pc-linux-gnu/bin/../lib/gcc/nios2-elf/4.1.2/../../../../nios2-elf/lib/mno-hw-mul/libc.a(lib_a-fclose.o)
                                0x529 (size before relaxing)
 .debug_str     0x00001262       0x4c /OPT/altera/12.1/tools/nios2eds/bin/gnu/H-i686-pc-linux-gnu/bin/../lib/gcc/nios2-elf/4.1.2/../../../../nios2-elf/lib/mno-hw-mul/libc.a(lib_a-fstatr.o)
                                0x604 (size before relaxing)
 .debug_str     0x000012ae       0x48 /OPT/altera/12.1/tools/nios2eds/bin/gnu/H-i686-pc-linux-gnu/bin/../lib/gcc/nios2-elf/4.1.2/../../../../nios2-elf/lib/mno-hw-mul/libc.a(lib_a-isattyr.o)
                                0x513 (size before relaxing)
 .debug_str     0x000012f6       0x46 /OPT/altera/12.1/tools/nios2eds/bin/gnu/H-i686-pc-linux-gnu/bin/../lib/gcc/nios2-elf/4.1.2/../../../../nios2-elf/lib/mno-hw-mul/libc.a(lib_a-lseekr.o)
                                0x51f (size before relaxing)
 .debug_str     0x0000133c       0x44 /OPT/altera/12.1/tools/nios2eds/bin/gnu/H-i686-pc-linux-gnu/bin/../lib/gcc/nios2-elf/4.1.2/../../../../nios2-elf/lib/mno-hw-mul/libc.a(lib_a-readr.o)
                                0x51f (size before relaxing)
 .debug_str     0x00001380       0x12 ../Evo_Synth_bsp//libucosii_bsp.a(alt_close.o)
 .debug_str     0x00001392       0x12 ../Evo_Synth_bsp//libucosii_bsp.a(alt_dev.o)
 .debug_str     0x000013a4       0x12 ../Evo_Synth_bsp//libucosii_bsp.a(alt_errno.o)
 .debug_str     0x000013b6       0x12 ../Evo_Synth_bsp//libucosii_bsp.a(alt_fstat.o)
 .debug_str     0x000013c8       0x12 ../Evo_Synth_bsp//libucosii_bsp.a(alt_isatty.o)
 .debug_str     0x000013da       0x12 ../Evo_Synth_bsp//libucosii_bsp.a(alt_load.o)
 .debug_str     0x000013ec       0x12 ../Evo_Synth_bsp//libucosii_bsp.a(alt_lseek.o)
 .debug_str     0x000013fe       0x12 ../Evo_Synth_bsp//libucosii_bsp.a(alt_main.o)
 .debug_str     0x00001410       0x12 ../Evo_Synth_bsp//libucosii_bsp.a(alt_read.o)
 .debug_str     0x00001422       0x12 ../Evo_Synth_bsp//libucosii_bsp.a(alt_release_fd.o)
 .debug_str     0x00001434       0x1a ../Evo_Synth_bsp//libucosii_bsp.a(alt_sbrk.o)
 .debug_str     0x0000144e       0x12 ../Evo_Synth_bsp//libucosii_bsp.a(alt_write.o)
 .debug_str     0x00001460       0x36 ../Evo_Synth_bsp//libucosii_bsp.a(alt_env_lock.o)
 .debug_str     0x00001496       0x36 ../Evo_Synth_bsp//libucosii_bsp.a(alt_malloc_lock.o)
 .debug_str     0x000014cc       0x46 ../Evo_Synth_bsp//libucosii_bsp.a(os_core.o)
 .debug_str     0x00001512       0x2b ../Evo_Synth_bsp//libucosii_bsp.a(os_dbg.o)
 .debug_str     0x0000153d       0x4e ../Evo_Synth_bsp//libucosii_bsp.a(os_flag.o)
 .debug_str     0x0000158b       0x2c ../Evo_Synth_bsp//libucosii_bsp.a(os_mem.o)
 .debug_str     0x000015b7       0x36 ../Evo_Synth_bsp//libucosii_bsp.a(os_q.o)
 .debug_str     0x000015ed       0x36 ../Evo_Synth_bsp//libucosii_bsp.a(os_sem.o)
 .debug_str     0x00001623       0x23 ../Evo_Synth_bsp//libucosii_bsp.a(os_task.o)
 .debug_str     0x00001646       0x1f ../Evo_Synth_bsp//libucosii_bsp.a(os_time.o)
 .debug_str     0x00001665       0x27 ../Evo_Synth_bsp//libucosii_bsp.a(alt_sys_init.o)
 .debug_str     0x0000168c       0x12 ../Evo_Synth_bsp//libucosii_bsp.a(altera_avalon_jtag_uart_fd.o)
 .debug_str     0x0000169e       0x1a ../Evo_Synth_bsp//libucosii_bsp.a(altera_avalon_jtag_uart_init.o)
 .debug_str     0x000016b8       0x12 ../Evo_Synth_bsp//libucosii_bsp.a(altera_avalon_jtag_uart_ioctl.o)
 .debug_str     0x000016ca       0x22 ../Evo_Synth_bsp//libucosii_bsp.a(altera_avalon_jtag_uart_read.o)
 .debug_str     0x000016ec       0x22 ../Evo_Synth_bsp//libucosii_bsp.a(altera_avalon_jtag_uart_write.o)
 .debug_str     0x0000170e       0x12 ../Evo_Synth_bsp//libucosii_bsp.a(altera_avalon_timer_sc.o)
 .debug_str     0x00001720       0x46 ../Evo_Synth_bsp//libucosii_bsp.a(altera_up_avalon_audio_and_video_config.o)
 .debug_str     0x00001766       0x23 ../Evo_Synth_bsp//libucosii_bsp.a(alt_alarm_start.o)
 .debug_str     0x00001789       0x12 ../Evo_Synth_bsp//libucosii_bsp.a(alt_dcache_flush_all.o)
 .debug_str     0x0000179b       0x12 ../Evo_Synth_bsp//libucosii_bsp.a(alt_dev_llist_insert.o)
 .debug_str     0x000017ad       0x12 ../Evo_Synth_bsp//libucosii_bsp.a(alt_find_dev.o)
 .debug_str     0x000017bf       0x12 ../Evo_Synth_bsp//libucosii_bsp.a(alt_icache_flush_all.o)
 .debug_str     0x000017d1       0x18 ../Evo_Synth_bsp//libucosii_bsp.a(alt_iic.o)
 .debug_str     0x000017e9       0x1a ../Evo_Synth_bsp//libucosii_bsp.a(alt_iic_isr_register.o)
 .debug_str     0x00001803       0x12 ../Evo_Synth_bsp//libucosii_bsp.a(alt_io_redirect.o)
 .debug_str     0x00001815       0x12 ../Evo_Synth_bsp//libucosii_bsp.a(alt_irq_handler.o)
 .debug_str     0x00001827       0x12 ../Evo_Synth_bsp//libucosii_bsp.a(alt_open.o)
 .debug_str     0x00001839       0x1a ../Evo_Synth_bsp//libucosii_bsp.a(alt_tick.o)
 .debug_str     0x00001853       0x12 ../Evo_Synth_bsp//libucosii_bsp.a(altera_nios2_qsys_irq.o)
 .debug_str     0x00001865       0x20 ../Evo_Synth_bsp//libucosii_bsp.a(os_cpu_c.o)
 .debug_str     0x00001885       0x12 ../Evo_Synth_bsp//libucosii_bsp.a(alt_find_file.o)
 .debug_str     0x00001897       0x12 ../Evo_Synth_bsp//libucosii_bsp.a(alt_get_fd.o)
 .debug_str     0x000018a9       0x3e /OPT/altera/12.1/tools/nios2eds/bin/gnu/H-i686-pc-linux-gnu/bin/../lib/gcc/nios2-elf/4.1.2/../../../../nios2-elf/lib/mno-hw-mul/libc.a(lib_a-atexit.o)
                                0x1d2 (size before relaxing)
 .debug_str     0x000018e7       0x41 /OPT/altera/12.1/tools/nios2eds/bin/gnu/H-i686-pc-linux-gnu/bin/../lib/gcc/nios2-elf/4.1.2/../../../../nios2-elf/lib/mno-hw-mul/libc.a(lib_a-exit.o)
                                0x51f (size before relaxing)
 .debug_str     0x00001928       0x45 /OPT/altera/12.1/tools/nios2eds/bin/gnu/H-i686-pc-linux-gnu/bin/../lib/gcc/nios2-elf/4.1.2/../../../../nios2-elf/lib/mno-hw-mul/libc.a(lib_a-memcmp.o)
                                0x17d (size before relaxing)
 .debug_str     0x0000196d       0x54 /OPT/altera/12.1/tools/nios2eds/bin/gnu/H-i686-pc-linux-gnu/bin/../lib/gcc/nios2-elf/4.1.2/../../../../nios2-elf/lib/mno-hw-mul/libc.a(lib_a-__atexit.o)
                                0x537 (size before relaxing)
 .debug_str     0x000019c1       0x7e /OPT/altera/12.1/tools/nios2eds/bin/gnu/H-i686-pc-linux-gnu/bin/../lib/gcc/nios2-elf/4.1.2/../../../../nios2-elf/lib/mno-hw-mul/libc.a(lib_a-__call_atexit.o)
                                0x561 (size before relaxing)
 .debug_str     0x00001a3f       0x1c ../Evo_Synth_bsp//libucosii_bsp.a(alt_exit.o)

.debug_loc      0x00000000     0x54ca
 *(.debug_loc)
 .debug_loc     0x00000000       0x56 obj/default/hello_ucosii.o
 .debug_loc     0x00000056      0x1d2 /OPT/altera/12.1/tools/nios2eds/bin/gnu/H-i686-pc-linux-gnu/bin/../lib/gcc/nios2-elf/4.1.2/mno-hw-mul/libgcc.a(lib2-divmod.o)
 .debug_loc     0x00000228       0x4f /OPT/altera/12.1/tools/nios2eds/bin/gnu/H-i686-pc-linux-gnu/bin/../lib/gcc/nios2-elf/4.1.2/mno-hw-mul/libgcc.a(lib2-mul.o)
 .debug_loc     0x00000277       0xa2 /OPT/altera/12.1/tools/nios2eds/bin/gnu/H-i686-pc-linux-gnu/bin/../lib/gcc/nios2-elf/4.1.2/../../../../nios2-elf/lib/mno-hw-mul/libc.a(lib_a-puts.o)
 .debug_loc     0x00000319       0x3c /OPT/altera/12.1/tools/nios2eds/bin/gnu/H-i686-pc-linux-gnu/bin/../lib/gcc/nios2-elf/4.1.2/../../../../nios2-elf/lib/mno-hw-mul/libc.a(lib_a-strlen.o)
 .debug_loc     0x00000355      0x4e4 /OPT/altera/12.1/tools/nios2eds/bin/gnu/H-i686-pc-linux-gnu/bin/../lib/gcc/nios2-elf/4.1.2/../../../../nios2-elf/lib/mno-hw-mul/libc.a(lib_a-fvwrite.o)
 .debug_loc     0x00000839      0xaeb /OPT/altera/12.1/tools/nios2eds/bin/gnu/H-i686-pc-linux-gnu/bin/../lib/gcc/nios2-elf/4.1.2/../../../../nios2-elf/lib/mno-hw-mul/libc.a(lib_a-mallocr.o)
 .debug_loc     0x00001324      0x106 /OPT/altera/12.1/tools/nios2eds/bin/gnu/H-i686-pc-linux-gnu/bin/../lib/gcc/nios2-elf/4.1.2/../../../../nios2-elf/lib/mno-hw-mul/libc.a(lib_a-memchr.o)
 .debug_loc     0x0000142a       0xca /OPT/altera/12.1/tools/nios2eds/bin/gnu/H-i686-pc-linux-gnu/bin/../lib/gcc/nios2-elf/4.1.2/../../../../nios2-elf/lib/mno-hw-mul/libc.a(lib_a-memcpy.o)
 .debug_loc     0x000014f4      0x117 /OPT/altera/12.1/tools/nios2eds/bin/gnu/H-i686-pc-linux-gnu/bin/../lib/gcc/nios2-elf/4.1.2/../../../../nios2-elf/lib/mno-hw-mul/libc.a(lib_a-memmove.o)
 .debug_loc     0x0000160b      0x8c0 /OPT/altera/12.1/tools/nios2eds/bin/gnu/H-i686-pc-linux-gnu/bin/../lib/gcc/nios2-elf/4.1.2/../../../../nios2-elf/lib/mno-hw-mul/libc.a(lib_a-reallocr.o)
 .debug_loc     0x00001ecb       0x5b /OPT/altera/12.1/tools/nios2eds/bin/gnu/H-i686-pc-linux-gnu/bin/../lib/gcc/nios2-elf/4.1.2/../../../../nios2-elf/lib/mno-hw-mul/libc.a(lib_a-sbrkr.o)
 .debug_loc     0x00001f26       0x7c /OPT/altera/12.1/tools/nios2eds/bin/gnu/H-i686-pc-linux-gnu/bin/../lib/gcc/nios2-elf/4.1.2/../../../../nios2-elf/lib/mno-hw-mul/libc.a(lib_a-wsetup.o)
 .debug_loc     0x00001fa2      0x1f6 /OPT/altera/12.1/tools/nios2eds/bin/gnu/H-i686-pc-linux-gnu/bin/../lib/gcc/nios2-elf/4.1.2/../../../../nios2-elf/lib/mno-hw-mul/libc.a(lib_a-fflush.o)
 .debug_loc     0x00002198      0x1e1 /OPT/altera/12.1/tools/nios2eds/bin/gnu/H-i686-pc-linux-gnu/bin/../lib/gcc/nios2-elf/4.1.2/../../../../nios2-elf/lib/mno-hw-mul/libc.a(lib_a-findfp.o)
 .debug_loc     0x00002379      0x4a7 /OPT/altera/12.1/tools/nios2eds/bin/gnu/H-i686-pc-linux-gnu/bin/../lib/gcc/nios2-elf/4.1.2/../../../../nios2-elf/lib/mno-hw-mul/libc.a(lib_a-freer.o)
 .debug_loc     0x00002820      0x1d2 /OPT/altera/12.1/tools/nios2eds/bin/gnu/H-i686-pc-linux-gnu/bin/../lib/gcc/nios2-elf/4.1.2/../../../../nios2-elf/lib/mno-hw-mul/libc.a(lib_a-fwalk.o)
 .debug_loc     0x000029f2      0x11c /OPT/altera/12.1/tools/nios2eds/bin/gnu/H-i686-pc-linux-gnu/bin/../lib/gcc/nios2-elf/4.1.2/../../../../nios2-elf/lib/mno-hw-mul/libc.a(lib_a-makebuf.o)
 .debug_loc     0x00002b0e       0xa1 /OPT/altera/12.1/tools/nios2eds/bin/gnu/H-i686-pc-linux-gnu/bin/../lib/gcc/nios2-elf/4.1.2/../../../../nios2-elf/lib/mno-hw-mul/libc.a(lib_a-memset.o)
 .debug_loc     0x00002baf      0x21f /OPT/altera/12.1/tools/nios2eds/bin/gnu/H-i686-pc-linux-gnu/bin/../lib/gcc/nios2-elf/4.1.2/../../../../nios2-elf/lib/mno-hw-mul/libc.a(lib_a-stdio.o)
 .debug_loc     0x00002dce       0x97 /OPT/altera/12.1/tools/nios2eds/bin/gnu/H-i686-pc-linux-gnu/bin/../lib/gcc/nios2-elf/4.1.2/../../../../nios2-elf/lib/mno-hw-mul/libc.a(lib_a-writer.o)
 .debug_loc     0x00002e65       0x5b /OPT/altera/12.1/tools/nios2eds/bin/gnu/H-i686-pc-linux-gnu/bin/../lib/gcc/nios2-elf/4.1.2/../../../../nios2-elf/lib/mno-hw-mul/libc.a(lib_a-closer.o)
 .debug_loc     0x00002ec0       0xe4 /OPT/altera/12.1/tools/nios2eds/bin/gnu/H-i686-pc-linux-gnu/bin/../lib/gcc/nios2-elf/4.1.2/../../../../nios2-elf/lib/mno-hw-mul/libc.a(lib_a-fclose.o)
 .debug_loc     0x00002fa4       0x79 /OPT/altera/12.1/tools/nios2eds/bin/gnu/H-i686-pc-linux-gnu/bin/../lib/gcc/nios2-elf/4.1.2/../../../../nios2-elf/lib/mno-hw-mul/libc.a(lib_a-fstatr.o)
 .debug_loc     0x0000301d       0x5b /OPT/altera/12.1/tools/nios2eds/bin/gnu/H-i686-pc-linux-gnu/bin/../lib/gcc/nios2-elf/4.1.2/../../../../nios2-elf/lib/mno-hw-mul/libc.a(lib_a-isattyr.o)
 .debug_loc     0x00003078       0x97 /OPT/altera/12.1/tools/nios2eds/bin/gnu/H-i686-pc-linux-gnu/bin/../lib/gcc/nios2-elf/4.1.2/../../../../nios2-elf/lib/mno-hw-mul/libc.a(lib_a-lseekr.o)
 .debug_loc     0x0000310f       0x97 /OPT/altera/12.1/tools/nios2eds/bin/gnu/H-i686-pc-linux-gnu/bin/../lib/gcc/nios2-elf/4.1.2/../../../../nios2-elf/lib/mno-hw-mul/libc.a(lib_a-readr.o)
 .debug_loc     0x000031a6       0x56 ../Evo_Synth_bsp//libucosii_bsp.a(alt_close.o)
 .debug_loc     0x000031fc       0x2b ../Evo_Synth_bsp//libucosii_bsp.a(alt_dev.o)
 .debug_loc     0x00003227       0x56 ../Evo_Synth_bsp//libucosii_bsp.a(alt_fstat.o)
 .debug_loc     0x0000327d       0x57 ../Evo_Synth_bsp//libucosii_bsp.a(alt_isatty.o)
 .debug_loc     0x000032d4       0x56 ../Evo_Synth_bsp//libucosii_bsp.a(alt_load.o)
 .debug_loc     0x0000332a       0x56 ../Evo_Synth_bsp//libucosii_bsp.a(alt_lseek.o)
 .debug_loc     0x00003380       0x2b ../Evo_Synth_bsp//libucosii_bsp.a(alt_main.o)
 .debug_loc     0x000033ab       0x56 ../Evo_Synth_bsp//libucosii_bsp.a(alt_read.o)
 .debug_loc     0x00003401       0x2b ../Evo_Synth_bsp//libucosii_bsp.a(alt_release_fd.o)
 .debug_loc     0x0000342c       0x2b ../Evo_Synth_bsp//libucosii_bsp.a(alt_sbrk.o)
 .debug_loc     0x00003457       0x56 ../Evo_Synth_bsp//libucosii_bsp.a(alt_write.o)
 .debug_loc     0x000034ad       0x57 ../Evo_Synth_bsp//libucosii_bsp.a(alt_env_lock.o)
 .debug_loc     0x00003504       0x57 ../Evo_Synth_bsp//libucosii_bsp.a(alt_malloc_lock.o)
 .debug_loc     0x0000355b      0x5e2 ../Evo_Synth_bsp//libucosii_bsp.a(os_core.o)
 .debug_loc     0x00003b3d       0x2b ../Evo_Synth_bsp//libucosii_bsp.a(os_dbg.o)
 .debug_loc     0x00003b68      0x232 ../Evo_Synth_bsp//libucosii_bsp.a(os_flag.o)
 .debug_loc     0x00003d9a      0x12d ../Evo_Synth_bsp//libucosii_bsp.a(os_mem.o)
 .debug_loc     0x00003ec7      0x1da ../Evo_Synth_bsp//libucosii_bsp.a(os_q.o)
 .debug_loc     0x000040a1      0x158 ../Evo_Synth_bsp//libucosii_bsp.a(os_sem.o)
 .debug_loc     0x000041f9      0x207 ../Evo_Synth_bsp//libucosii_bsp.a(os_task.o)
 .debug_loc     0x00004400       0xd7 ../Evo_Synth_bsp//libucosii_bsp.a(os_time.o)
 .debug_loc     0x000044d7       0x81 ../Evo_Synth_bsp//libucosii_bsp.a(alt_sys_init.o)
 .debug_loc     0x00004558       0xac ../Evo_Synth_bsp//libucosii_bsp.a(altera_avalon_jtag_uart_fd.o)
 .debug_loc     0x00004604       0xac ../Evo_Synth_bsp//libucosii_bsp.a(altera_avalon_jtag_uart_init.o)
 .debug_loc     0x000046b0       0x2b ../Evo_Synth_bsp//libucosii_bsp.a(altera_avalon_jtag_uart_ioctl.o)
 .debug_loc     0x000046db       0x2c ../Evo_Synth_bsp//libucosii_bsp.a(altera_avalon_jtag_uart_read.o)
 .debug_loc     0x00004707       0x2c ../Evo_Synth_bsp//libucosii_bsp.a(altera_avalon_jtag_uart_write.o)
 .debug_loc     0x00004733       0x56 ../Evo_Synth_bsp//libucosii_bsp.a(altera_avalon_timer_sc.o)
 .debug_loc     0x00004789      0x2db ../Evo_Synth_bsp//libucosii_bsp.a(altera_up_avalon_audio_and_video_config.o)
 .debug_loc     0x00004a64       0x2b ../Evo_Synth_bsp//libucosii_bsp.a(alt_alarm_start.o)
 .debug_loc     0x00004a8f       0x2b ../Evo_Synth_bsp//libucosii_bsp.a(alt_dcache_flush_all.o)
 .debug_loc     0x00004aba       0x56 ../Evo_Synth_bsp//libucosii_bsp.a(alt_dev_llist_insert.o)
 .debug_loc     0x00004b10       0x2b ../Evo_Synth_bsp//libucosii_bsp.a(alt_do_ctors.o)
 .debug_loc     0x00004b3b       0x2b ../Evo_Synth_bsp//libucosii_bsp.a(alt_do_dtors.o)
 .debug_loc     0x00004b66       0x2b ../Evo_Synth_bsp//libucosii_bsp.a(alt_find_dev.o)
 .debug_loc     0x00004b91       0x2b ../Evo_Synth_bsp//libucosii_bsp.a(alt_icache_flush_all.o)
 .debug_loc     0x00004bbc       0xac ../Evo_Synth_bsp//libucosii_bsp.a(alt_iic.o)
 .debug_loc     0x00004c68       0x2b ../Evo_Synth_bsp//libucosii_bsp.a(alt_iic_isr_register.o)
 .debug_loc     0x00004c93       0x56 ../Evo_Synth_bsp//libucosii_bsp.a(alt_io_redirect.o)
 .debug_loc     0x00004ce9       0x2b ../Evo_Synth_bsp//libucosii_bsp.a(alt_irq_handler.o)
 .debug_loc     0x00004d14       0x81 ../Evo_Synth_bsp//libucosii_bsp.a(alt_open.o)
 .debug_loc     0x00004d95       0x56 ../Evo_Synth_bsp//libucosii_bsp.a(alt_tick.o)
 .debug_loc     0x00004deb       0x2b ../Evo_Synth_bsp//libucosii_bsp.a(altera_nios2_qsys_irq.o)
 .debug_loc     0x00004e16      0x1ae ../Evo_Synth_bsp//libucosii_bsp.a(os_cpu_c.o)
 .debug_loc     0x00004fc4       0x2b ../Evo_Synth_bsp//libucosii_bsp.a(alt_find_file.o)
 .debug_loc     0x00004fef       0x2b ../Evo_Synth_bsp//libucosii_bsp.a(alt_get_fd.o)
 .debug_loc     0x0000501a       0x1e /OPT/altera/12.1/tools/nios2eds/bin/gnu/H-i686-pc-linux-gnu/bin/../lib/gcc/nios2-elf/4.1.2/../../../../nios2-elf/lib/mno-hw-mul/libc.a(lib_a-atexit.o)
 .debug_loc     0x00005038       0x3d /OPT/altera/12.1/tools/nios2eds/bin/gnu/H-i686-pc-linux-gnu/bin/../lib/gcc/nios2-elf/4.1.2/../../../../nios2-elf/lib/mno-hw-mul/libc.a(lib_a-exit.o)
 .debug_loc     0x00005075      0x114 /OPT/altera/12.1/tools/nios2eds/bin/gnu/H-i686-pc-linux-gnu/bin/../lib/gcc/nios2-elf/4.1.2/../../../../nios2-elf/lib/mno-hw-mul/libc.a(lib_a-memcmp.o)
 .debug_loc     0x00005189      0x120 /OPT/altera/12.1/tools/nios2eds/bin/gnu/H-i686-pc-linux-gnu/bin/../lib/gcc/nios2-elf/4.1.2/../../../../nios2-elf/lib/mno-hw-mul/libc.a(lib_a-__atexit.o)
 .debug_loc     0x000052a9      0x1cb /OPT/altera/12.1/tools/nios2eds/bin/gnu/H-i686-pc-linux-gnu/bin/../lib/gcc/nios2-elf/4.1.2/../../../../nios2-elf/lib/mno-hw-mul/libc.a(lib_a-__call_atexit.o)
 .debug_loc     0x00005474       0x56 ../Evo_Synth_bsp//libucosii_bsp.a(alt_exit.o)

.debug_macinfo
 *(.debug_macinfo)

.debug_weaknames
 *(.debug_weaknames)

.debug_funcnames
 *(.debug_funcnames)

.debug_typenames
 *(.debug_typenames)

.debug_varnames
 *(.debug_varnames)

.debug_alt_sim_info
                0x00000000       0x10
 *(.debug_alt_sim_info)
 .debug_alt_sim_info
                0x00000000       0x10 ../Evo_Synth_bsp//obj/HAL/src/crt0.o
                0x01000000                __alt_data_end = 0x1000000
                0x01000000                PROVIDE (__alt_stack_pointer, __alt_data_end)
                0x00817b60                PROVIDE (__alt_stack_limit, __alt_stack_base)
                0x00817b60                PROVIDE (__alt_heap_start, end)
                0x01000000                PROVIDE (__alt_heap_limit, 0x1000000)
OUTPUT(Evo_Synth.elf elf32-littlenios2)

.debug_ranges   0x00000000      0x310
 .debug_ranges  0x00000000       0x20 ../Evo_Synth_bsp//obj/HAL/src/crt0.o
 .debug_ranges  0x00000020       0x28 /OPT/altera/12.1/tools/nios2eds/bin/gnu/H-i686-pc-linux-gnu/bin/../lib/gcc/nios2-elf/4.1.2/../../../../nios2-elf/lib/mno-hw-mul/libc.a(lib_a-fvwrite.o)
 .debug_ranges  0x00000048       0x70 /OPT/altera/12.1/tools/nios2eds/bin/gnu/H-i686-pc-linux-gnu/bin/../lib/gcc/nios2-elf/4.1.2/../../../../nios2-elf/lib/mno-hw-mul/libc.a(lib_a-mallocr.o)
 .debug_ranges  0x000000b8      0x110 /OPT/altera/12.1/tools/nios2eds/bin/gnu/H-i686-pc-linux-gnu/bin/../lib/gcc/nios2-elf/4.1.2/../../../../nios2-elf/lib/mno-hw-mul/libc.a(lib_a-reallocr.o)
 .debug_ranges  0x000001c8       0x20 /OPT/altera/12.1/tools/nios2eds/bin/gnu/H-i686-pc-linux-gnu/bin/../lib/gcc/nios2-elf/4.1.2/../../../../nios2-elf/lib/mno-hw-mul/libc.a(lib_a-fflush.o)
 .debug_ranges  0x000001e8       0xa0 /OPT/altera/12.1/tools/nios2eds/bin/gnu/H-i686-pc-linux-gnu/bin/../lib/gcc/nios2-elf/4.1.2/../../../../nios2-elf/lib/mno-hw-mul/libc.a(lib_a-fwalk.o)
 .debug_ranges  0x00000288       0x18 ../Evo_Synth_bsp//libucosii_bsp.a(altera_avalon_jtag_uart_init.o)
 .debug_ranges  0x000002a0       0x28 ../Evo_Synth_bsp//libucosii_bsp.a(alt_irq_entry.o)
 .debug_ranges  0x000002c8       0x30 ../Evo_Synth_bsp//libucosii_bsp.a(alt_exception_entry.o)
 .debug_ranges  0x000002f8       0x18 /OPT/altera/12.1/tools/nios2eds/bin/gnu/H-i686-pc-linux-gnu/bin/../lib/gcc/nios2-elf/4.1.2/../../../../nios2-elf/lib/mno-hw-mul/libc.a(lib_a-__call_atexit.o)
